Microchip MPLAB XC8 Compiler V2.46

Linker command line:

-W-3 \
  --edf=C:\Program Files\Microchip\xc8\v2.46\pic\dat\20240104201356_en.msgs \
  -cn -h+dist/default/debug\projeto_final_EE_gp1.debug.sym \
  --cmf=dist/default/debug\projeto_final_EE_gp1.debug.cmf -z -w9 \
  --disl=596:off -Q16F1827 \
  -oC:\Users\rodri\AppData\Local\Temp\xcAsfoo.\driver_tmp_3.o \
  --defsym=__MPLAB_BUILD=1 \
  -Mdist/default/debug/projeto_final_EE_gp1.debug.map \
  --md=C:\Users\rodri\AppData\Local\Temp\xcAsfoo.\driver_tmp_0.dat -E1 \
  -ver=XC8 Compiler --acfsm=1493 -ACODE=00h-07FFhx2 -ASTRCODE=00h-0FFFh \
  -ASTRING=00h-0FFhx16 -ACONST=00h-0FFhx16 -AENTRY=00h-0FFhx16 \
  -ACOMMON=070h-07Fh -ABANK0=020h-06Fh -ABANK1=0A0h-0EFh \
  -ABANK2=0120h-016Fh -ABANK3=01A0h-01EFh -ABANK4=0220h-024Fh \
  -ABIGRAM=02000h-0216Fh \
  -ARAM=020h-06Fh,0A0h-0EFh,0120h-016Fh,01A0h-01EFh,0220h-024Fh \
  -AABS1=020h-07Fh,0A0h-0EFh,0120h-016Fh,01A0h-01EFh,0220h-024Fh \
  -ASFR0=00h-01Fh -ASFR1=080h-09Fh -ASFR2=0100h-011Fh -ASFR3=0180h-019Fh \
  -ASFR4=0200h-021Fh -ASFR5=0280h-02EFh -ASFR6=0300h-036Fh \
  -ASFR7=0380h-03EFh -ASFR8=0400h-046Fh -ASFR9=0480h-04EFh \
  -ASFR10=0500h-056Fh -ASFR11=0580h-05EFh -ASFR12=0600h-066Fh \
  -ASFR13=0680h-06EFh -ASFR14=0700h-076Fh -ASFR15=0780h-07EFh \
  -ASFR16=0800h-086Fh -ASFR17=0880h-08EFh -ASFR18=0900h-096Fh \
  -ASFR19=0980h-09EFh -ASFR20=0A00h-0A6Fh -ASFR21=0A80h-0AEFh \
  -ASFR22=0B00h-0B6Fh -ASFR23=0B80h-0BEFh -ASFR24=0C00h-0C6Fh \
  -ASFR25=0C80h-0CEFh -ASFR26=0D00h-0D6Fh -ASFR27=0D80h-0DEFh \
  -ASFR28=0E00h-0E6Fh -ASFR29=0E80h-0EEFh -ASFR30=0F00h-0F6Fh \
  -ASFR31=0F80h-0FEFh -ACONFIG=08007h-08008h -DCONFIG=2 \
  -AIDLOC=08000h-08003h -DIDLOC=2 -AEEDATA=00h-0FFh/0F000h \
  -peeprom_data=EEDATA -DEEDATA=2 -DCODE=2 -DSTRCODE=2 -DSTRING=2 -DCONST=2 \
  -DENTRY=2 -preset_vec=00h,intentry=04h,sivt,init,end_init -ppowerup=CODE \
  -pcinit=CODE -pfunctab=ENTRY -k \
  C:\Users\rodri\AppData\Local\Temp\xcAsfoo.\driver_tmp_15.o \
  dist/default/debug\projeto_final_EE_gp1.debug.o 

Object code version is 3.11

Machine type is 16F1827



                Name                               Link     Load   Length Selector   Space Scale
C:\Users\rodri\AppData\Local\Temp\xcAsfoo.\driver_tmp_15.o
                end_init                             26       26        3        8       0
                reset_vec                             0        0        2        0       0
                config                             8007     8007        2        0       4
dist/default/debug\projeto_final_EE_gp1.debug.o
                cinit                                29       29       35        8       0
                intentry                              4        4       22        8       0
                config                             8007     8007        2        0       4
                text55                                2        2        1        0       0
                text54                              9CA      9CA       19     1394       0
                text53                              979      979       11     12F2       0
                text52                              8F5      8F5        9     11EA       0
                text51                              DFD      DFD       AB     1BFA       0
                text50                              A37      A37       23     146E       0
                text49                              299      299      23B        8       0
                text48                              B84      B84       71     1708       0
                text47                              EA8      EA8       AC     1D50       0
                text46                                3        3        1        6       0
                text45                              95A      95A        F     12B4       0
                text43                              969      969       10     12D2       0
                text42                                0        0        5        0       0
                text41                              8E5      8E5        8     11CA       0
                text40                                5        5        6        0       0
                text39                                B        B        6        0       0
                text38                              94C      94C        E     1298       0
                text37                              8FE      8FE        9     11FC       0
                text36                              907      907        9     120E       0
                text35                              910      910        9     1220       0
                text34                              A7E      A7E       25     14FC       0
                text33                               11       11        4        0       0
                text32                              8DE      8DE        7     11BC       0
                text31                              99C      99C       17     1338       0
                text30                              922      922        A     1244       0
                text29                              919      919        9     1232       0
                text28                              9E3      9E3       1C     13C6       0
                text27                              8ED      8ED        8     11DA       0
                text26                              92C      92C        A     1258       0
                text25                              936      936        A     126C       0
                text24                               15       15        4        0       0
                text23                              ACB      ACB       2B     1596       0
                text22                               19       19        6        0       0
                text21                               1F       1F        3        0       0
                text20                               22       22        6        0       0
                text19                              8CC      8CC        6     1198       0
                text18                              9FF      9FF       1C     13FE       0
                text17                              726      726       DA        8       0
                text16                               28       28        3        0       0
                text15                              C66      C66       79     18CC       0
                text14                              AF6      AF6       2B     15EC       0
                text13                              622      622      104        8       0
                text12                              4D4      4D4      14E        8       0
                text11                              9B3      9B3       17     1366       0
                text10                              940      940        C     1280       0
                text9                               A5A      A5A       24     14B4       0
                text8                                5E       5E      23B        8       0
                text7                               BF5      BF5       71     17EA       0
                text6                               D58      D58       A5     1AB0       0
                text5                               B21      B21       63     1642       0
                text4                               AA3      AA3       28     1546       0
                text3                               CDF      CDF       79     19BE       0
                text2                                2B       2B        4        0       0
                text1                               A1B      A1B       1C     1436       0
                maintext                            F54      F54       AC     1EA8       0
                cstackBANK0                          20       20       2A       20       1
                cstackCOMMON                         70       70        D       70       1
                cstackBANK1                          A0       A0       2E       A0       1
                clrtext                             8D2      8D2        6     11A4       0
                inittext                            8D8      8D8        6     11B0       0
                dataBANK2                           120      120       12      120       1
                bssBANK2                            13A      13A        7      120       1
                bssBANK1                             CE       CE       21       A0       1
                dataBANK0                            6B       6B        5       20       1
                bssBANK0                             4A       4A       21       20       1
                bssCOMMON                            7D       7D        1       70       1
                nvBANK2                             132      132        8      120       1
                stringtext1                         800      800       CC     1000       0
                idataBANK2                          98A      98A       12     1314       0
                idataBANK0                           2F       2F        5        0       0

TOTAL           Name                               Link     Load   Length     Space
        CLASS   CODE           
                end_init                             26       26        3         0
                cinit                                29       29       35         0
                intentry                              4        4       22         0
                reset_vec                             0        0        2         0
                text55                                2        2        1         0
                text54                              9CA      9CA       19         0
                text53                              979      979       11         0
                text52                              8F5      8F5        9         0
                text51                              DFD      DFD       AB         0
                text50                              A37      A37       23         0
                text49                              299      299      23B         0
                text48                              B84      B84       71         0
                text47                              EA8      EA8       AC         0
                text46                                3        3        1         0
                text45                              95A      95A        F         0
                text43                              969      969       10         0
                text42                                0        0        5         0
                text41                              8E5      8E5        8         0
                text40                                5        5        6         0
                text39                                B        B        6         0
                text38                              94C      94C        E         0
                text37                              8FE      8FE        9         0
                text36                              907      907        9         0
                text35                              910      910        9         0
                text34                              A7E      A7E       25         0
                text33                               11       11        4         0
                text32                              8DE      8DE        7         0
                text31                              99C      99C       17         0
                text30                              922      922        A         0
                text29                              919      919        9         0
                text28                              9E3      9E3       1C         0
                text27                              8ED      8ED        8         0
                text26                              92C      92C        A         0
                text25                              936      936        A         0
                text24                               15       15        4         0
                text23                              ACB      ACB       2B         0
                text22                               19       19        6         0
                text21                               1F       1F        3         0
                text20                               22       22        6         0
                text19                              8CC      8CC        6         0
                text18                              9FF      9FF       1C         0
                text17                              726      726       DA         0
                text16                               28       28        3         0
                text15                              C66      C66       79         0
                text14                              AF6      AF6       2B         0
                text13                              622      622      104         0
                text12                              4D4      4D4      14E         0
                text11                              9B3      9B3       17         0
                text10                              940      940        C         0
                text9                               A5A      A5A       24         0
                text8                                5E       5E      23B         0
                text7                               BF5      BF5       71         0
                text6                               D58      D58       A5         0
                text5                               B21      B21       63         0
                text4                               AA3      AA3       28         0
                text3                               CDF      CDF       79         0
                text2                                2B       2B        4         0
                text1                               A1B      A1B       1C         0
                maintext                            F54      F54       AC         0
                clrtext                             8D2      8D2        6         0
                inittext                            8D8      8D8        6         0
                idataBANK2                          98A      98A       12         0
                idataBANK0                           2F       2F        5         0

        CLASS   STRCODE        
                stringtext1                         800      800       CC         0

        CLASS   STRING         

        CLASS   CONST          

        CLASS   ENTRY          

        CLASS   COMMON         
                cstackCOMMON                         70       70        D         1
                bssCOMMON                            7D       7D        1         1

        CLASS   BANK0          
                cstackBANK0                          20       20       2A         1
                dataBANK0                            6B       6B        5         1
                bssBANK0                             4A       4A       21         1

        CLASS   BANK1          
                cstackBANK1                          A0       A0       2E         1
                bssBANK1                             CE       CE       21         1

        CLASS   BANK2          
                dataBANK2                           120      120       12         1
                bssBANK2                            13A      13A        7         1
                nvBANK2                             132      132        8         1

        CLASS   BANK3          

        CLASS   BANK4          

        CLASS   BIGRAM         

        CLASS   RAM            

        CLASS   ABS1           
                abs_s1                               7E       7E        2         1

        CLASS   SFR0           

        CLASS   SFR1           

        CLASS   SFR2           

        CLASS   SFR3           

        CLASS   SFR4           

        CLASS   SFR5           

        CLASS   SFR6           

        CLASS   SFR7           

        CLASS   SFR8           

        CLASS   SFR9           

        CLASS   SFR10          

        CLASS   SFR11          

        CLASS   SFR12          

        CLASS   SFR13          

        CLASS   SFR14          

        CLASS   SFR15          

        CLASS   SFR16          

        CLASS   SFR17          

        CLASS   SFR18          

        CLASS   SFR19          

        CLASS   SFR20          

        CLASS   SFR21          

        CLASS   SFR22          

        CLASS   SFR23          

        CLASS   SFR24          

        CLASS   SFR25          

        CLASS   SFR26          

        CLASS   SFR27          

        CLASS   SFR28          

        CLASS   SFR29          

        CLASS   SFR30          

        CLASS   SFR31          

        CLASS   CONFIG         
                config                             8007     8007        2         4

        CLASS   IDLOC          

        CLASS   EEDATA         

        CLASS   BANK31         

        CLASS   BANK30         

        CLASS   BANK29         

        CLASS   BANK28         

        CLASS   BANK27         

        CLASS   BANK26         

        CLASS   BANK25         

        CLASS   BANK24         

        CLASS   BANK23         

        CLASS   BANK22         

        CLASS   BANK21         

        CLASS   BANK20         

        CLASS   BANK19         

        CLASS   BANK18         

        CLASS   BANK17         

        CLASS   BANK16         

        CLASS   BANK15         

        CLASS   BANK14         

        CLASS   BANK13         

        CLASS   BANK12         

        CLASS   BANK11         

        CLASS   BANK10         

        CLASS   BANK9          

        CLASS   BANK8          

        CLASS   BANK7          

        CLASS   BANK6          

        CLASS   BANK5          

        CLASS   HEAP           

        CLASS   STACK          



SEGMENTS        Name                           Load    Length   Top    Selector   Space  Class     Delta

                reset_vec                      000000  000003  000003         0       0  CODE        2
                text46                         000003  000001  000004         6       0  CODE        2
                intentry                       000004  0007FC  000800         8       0  CODE        2
                cstackBANK0                    000020  000050  000070        20       1  BANK0       1
                cstackCOMMON                   000070  00000E  00007E        70       1  COMMON      1
                cstackBANK1                    0000A0  00004F  0000EF        A0       1  BANK1       1
                dataBANK2                      000120  000021  000141       120       1  BANK2       1
                stringtext1                    000800  0000CC  0008CC      1000       0  STRCODE     2
                text19                         0008CC  000006  0008D2      1198       0  CODE        2
                clrtext                        0008D2  000006  0008D8      11A4       0  CODE        2
                inittext                       0008D8  000006  0008DE      11B0       0  CODE        2
                text32                         0008DE  000007  0008E5      11BC       0  CODE        2
                text41                         0008E5  000008  0008ED      11CA       0  CODE        2
                text27                         0008ED  000008  0008F5      11DA       0  CODE        2
                text52                         0008F5  000009  0008FE      11EA       0  CODE        2
                text37                         0008FE  000009  000907      11FC       0  CODE        2
                text36                         000907  000009  000910      120E       0  CODE        2
                text35                         000910  000009  000919      1220       0  CODE        2
                text29                         000919  000009  000922      1232       0  CODE        2
                text30                         000922  00000A  00092C      1244       0  CODE        2
                text26                         00092C  00000A  000936      1258       0  CODE        2
                text25                         000936  00000A  000940      126C       0  CODE        2
                text10                         000940  00000C  00094C      1280       0  CODE        2
                text38                         00094C  00000E  00095A      1298       0  CODE        2
                text45                         00095A  00000F  000969      12B4       0  CODE        2
                text43                         000969  000010  000979      12D2       0  CODE        2
                text53                         000979  000011  00098A      12F2       0  CODE        2
                idataBANK2                     00098A  000012  00099C      1314       0  CODE        2
                text31                         00099C  000017  0009B3      1338       0  CODE        2
                text11                         0009B3  000017  0009CA      1366       0  CODE        2
                text54                         0009CA  000019  0009E3      1394       0  CODE        2
                text28                         0009E3  00001C  0009FF      13C6       0  CODE        2
                text18                         0009FF  00001C  000A1B      13FE       0  CODE        2
                text1                          000A1B  00001C  000A37      1436       0  CODE        2
                text50                         000A37  000023  000A5A      146E       0  CODE        2
                text9                          000A5A  000024  000A7E      14B4       0  CODE        2
                text34                         000A7E  000025  000AA3      14FC       0  CODE        2
                text4                          000AA3  000028  000ACB      1546       0  CODE        2
                text23                         000ACB  00002B  000AF6      1596       0  CODE        2
                text14                         000AF6  00002B  000B21      15EC       0  CODE        2
                text5                          000B21  000063  000B84      1642       0  CODE        2
                text48                         000B84  000071  000BF5      1708       0  CODE        2
                text7                          000BF5  000071  000C66      17EA       0  CODE        2
                text15                         000C66  000079  000CDF      18CC       0  CODE        2
                text3                          000CDF  000079  000D58      19BE       0  CODE        2
                text6                          000D58  0000A5  000DFD      1AB0       0  CODE        2
                text51                         000DFD  0000AB  000EA8      1BFA       0  CODE        2
                text47                         000EA8  0000AC  000F54      1D50       0  CODE        2
                maintext                       000F54  0000AC  001000      1EA8       0  CODE        2


UNUSED ADDRESS RANGES

        Name                Unused          Largest block    Delta
        BANK1            000EF-000EF               1           1
        BANK2            00141-0016F              2F           1
        BANK3            001A0-001EF              50           1
        BANK4            00220-0024F              30           1
        BIGRAM           02000-0216F             170           1
        EEDATA           0F000-0F0FF             100           2
        IDLOC            08000-08003               4           2
        RAM              000EF-000EF               1           1
                         00141-0016F              2F
                         001A0-001EF              50
                         00220-0024F              30
        SFR0             00000-0001F              20           1
        SFR1             00080-0009F              20           1
        SFR10            00500-0056F              70           1
        SFR11            00580-005EF              70           1
        SFR12            00600-0066F              70           1
        SFR13            00680-006EF              70           1
        SFR14            00700-0076F              70           1
        SFR15            00780-007EF              70           1
        SFR16            00800-0086F              70           1
        SFR17            00880-008EF              70           1
        SFR18            00900-0096F              70           1
        SFR19            00980-009EF              70           1
        SFR2             00100-0011F              20           1
        SFR20            00A00-00A6F              70           1
        SFR21            00A80-00AEF              70           1
        SFR22            00B00-00B6F              70           1
        SFR23            00B80-00BEF              70           1
        SFR24            00C00-00C6F              70           1
        SFR25            00C80-00CEF              70           1
        SFR26            00D00-00D6F              70           1
        SFR27            00D80-00DEF              70           1
        SFR28            00E00-00E6F              70           1
        SFR29            00E80-00EEF              70           1
        SFR3             00180-0019F              20           1
        SFR30            00F00-00F6F              70           1
        SFR31            00F80-00FEF              70           1
        SFR4             00200-0021F              20           1
        SFR5             00280-002EF              70           1
        SFR6             00300-0036F              70           1
        SFR7             00380-003EF              70           1
        SFR8             00400-0046F              70           1
        SFR9             00480-004EF              70           1

                                  Symbol Table

?_TMR1_ReadTimer                               cstackCOMMON 00070
?__Umul8_16                                    cstackBANK1  000A0
?___atdiv                                      cstackBANK1  000A9
?___flmul                                      cstackBANK1  000A9
?___fltol                                      cstackBANK1  000C3
?___tmul                                       cstackBANK1  000A0
?___xxtofl                                     cstackBANK0  00026
?i1__Umul8_16                                  cstackCOMMON 00070
?i1___flmul                                    cstackBANK0  00026
?i1___fltol                                    cstackCOMMON 00079
EPWM1_LoadDutyValue@dutyValue                  cstackBANK1  000A0
EUSART_SetErrorHandler@interruptHandler        cstackBANK1  000A0
EUSART_SetFramingErrorHandler@interruptHandler cstackBANK1  000A0
EUSART_SetOverrunErrorHandler@interruptHandler cstackBANK1  000A0
EUSART_Write@txData                            cstackBANK1  000A0
TMR0_ReadTimer@readVal                         cstackBANK1  000A0
TMR1_ReadTimer@readVal                         cstackCOMMON 00077
TMR1_ReadTimer@readValHigh                     cstackCOMMON 00079
TMR1_ReadTimer@readValLow                      cstackCOMMON 0007A
TMR1_SetGateInterruptHandler@InterruptHandler  cstackBANK1  000A0
TMR1_WriteTimer@timerVal                       cstackCOMMON 00070
TMR6_LoadPeriodRegister@periodVal              cstackBANK1  000A0
TMR6_WriteTimer@timerVal                       cstackBANK1  000A0
_ADCON0                                        (abs)        0009D
_ADCON0bits                                    (abs)        0009D
_ADCON1                                        (abs)        0009E
_ADC_Initialize                                text41       008E5
_ADRESH                                        (abs)        0009C
_ADRESL                                        (abs)        0009B
_ANSELA                                        (abs)        0018C
_ANSELB                                        (abs)        0018D
_APFCON0                                       (abs)        0011D
_APFCON1                                       (abs)        0011E
_BAUDCON                                       (abs)        0019F
_BORCON                                        (abs)        00116
_CCP1CON                                       (abs)        00293
_CCPR1H                                        (abs)        00292
_CCPR1L                                        (abs)        00291
_CCPTMRS0bits                                  (abs)        0029E
_CM1CON0                                       (abs)        00111
_CM1CON1                                       (abs)        00112
_CMOUTbits                                     (abs)        00115
_CMP1_GetOutputStatus                          text2        0002B
_CMP1_Initialize                               text40       00005
_DACCON0                                       (abs)        00118
_DACCON1                                       (abs)        00119
_DAC_Initialize                                text39       0000B
_ECCP1AS                                       (abs)        00295
_EPWM1_Initialize                              text38       0094C
_EPWM1_LoadDutyValue                           text18       009FF
_EUSART_DefaultErrorHandler                    (abs)        00000
_EUSART_DefaultFramingErrorHandler             (abs)        00000
_EUSART_DefaultOverrunErrorHandler             (abs)        00000
_EUSART_ErrorHandler                           nvBANK2      00134
_EUSART_FramingErrorHandler                    nvBANK2      00138
_EUSART_Initialize                             text34       00A7E
_EUSART_OverrunErrorHandler                    nvBANK2      00136
_EUSART_Read                                   text43       00969
_EUSART_SetErrorHandler                        text37       008FE
_EUSART_SetFramingErrorHandler                 text36       00907
_EUSART_SetOverrunErrorHandler                 text35       00910
_EUSART_Write                                  text10       00940
_EUSART_is_rx_ready                            text42       00000
_FVRCON                                        (abs)        00117
_FVRCONbits                                    (abs)        00117
_FVR_Initialize                                text33       00011
_INTCONbits                                    (abs)        0000B
_INTERRUPT_InterruptManager                    intentry     00004
_LATA                                          (abs)        0010C
_LATAbits                                      (abs)        0010C
_LATB                                          (abs)        0010D
_OPTION_REG                                    (abs)        00095
_OPTION_REGbits                                (abs)        00095
_OSCCON                                        (abs)        00099
_OSCILLATOR_Initialize                         text32       008DE
_OSCTUNE                                       (abs)        00098
_PIE1bits                                      (abs)        00091
_PIN_MANAGER_IOC                               text55       00002
_PIN_MANAGER_Initialize                        text31       0099C
_PIR1bits                                      (abs)        00011
_PIR3bits                                      (abs)        00013
_PR2                                           (abs)        0001B
_PR4                                           (abs)        00416
_PR6                                           (abs)        0041D
_PSTR1CON                                      (abs)        00296
_PWM1CON                                       (abs)        00294
_RCREG                                         (abs)        00199
_RCSTA                                         (abs)        0019D
_RCSTAbits                                     (abs)        0019D
_SPBRGH                                        (abs)        0019C
_SPBRGL                                        (abs)        0019B
_SYSTEM_Initialize                             text23       00ACB
_T1CON                                         (abs)        00018
_T1CONbits                                     (abs)        00018
_T1GCON                                        (abs)        00019
_T1GCONbits                                    (abs)        00019
_T2CON                                         (abs)        0001C
_T2CONbits                                     (abs)        0001C
_T4CON                                         (abs)        00417
_T4CONbits                                     (abs)        00417
_T6CON                                         (abs)        0041E
_T6CONbits                                     (abs)        0041E
_TMR0                                          (abs)        00015
_TMR0_Initialize                               text30       00922
_TMR0_ReadTimer                                text22       00019
_TMR1H                                         (abs)        00017
_TMR1L                                         (abs)        00016
_TMR1_DefaultGateInterruptHandler              text46       00003
_TMR1_GATE_ISR                                 text45       0095A
_TMR1_GateInterruptHandler                     nvBANK2      00132
_TMR1_Initialize                               text28       009E3
_TMR1_ReadTimer                                text54       009CA
_TMR1_Reload                                   text52       008F5
_TMR1_SetGateInterruptHandler                  text29       00919
_TMR1_WriteTimer                               text53       00979
_TMR2                                          (abs)        0001A
_TMR2_Initialize                               text27       008ED
_TMR4                                          (abs)        00415
_TMR4_Initialize                               text26       0092C
_TMR4_StartTimer                               text16       00028
_TMR4_StopTimer                                text21       0001F
_TMR6                                          (abs)        0041C
_TMR6_Initialize                               text25       00936
_TMR6_LoadPeriodRegister                       text20       00022
_TMR6_WriteTimer                               text19       008CC
_TRISA                                         (abs)        0008C
_TRISB                                         (abs)        0008D
_TXREG                                         (abs)        0019A
_TXSTA                                         (abs)        0019E
_TXSTAbits                                     (abs)        0019E
_WDTCON                                        (abs)        00097
_WDT_Initialize                                text24       00015
_WPUA                                          (abs)        0020C
_WPUB                                          (abs)        0020D
__H__absolute__                                __absolute__ 00000
__Habs1                                        abs1         00000
__Hbank0                                       bank0        00000
__Hbank1                                       bank1        00000
__Hbank10                                      bank10       00000
__Hbank11                                      bank11       00000
__Hbank12                                      bank12       00000
__Hbank13                                      bank13       00000
__Hbank14                                      bank14       00000
__Hbank15                                      bank15       00000
__Hbank16                                      bank16       00000
__Hbank17                                      bank17       00000
__Hbank18                                      bank18       00000
__Hbank19                                      bank19       00000
__Hbank2                                       bank2        00000
__Hbank20                                      bank20       00000
__Hbank21                                      bank21       00000
__Hbank22                                      bank22       00000
__Hbank23                                      bank23       00000
__Hbank24                                      bank24       00000
__Hbank25                                      bank25       00000
__Hbank26                                      bank26       00000
__Hbank27                                      bank27       00000
__Hbank28                                      bank28       00000
__Hbank29                                      bank29       00000
__Hbank3                                       bank3        00000
__Hbank30                                      bank30       00000
__Hbank31                                      bank31       00000
__Hbank4                                       bank4        00000
__Hbank5                                       bank5        00000
__Hbank6                                       bank6        00000
__Hbank7                                       bank7        00000
__Hbank8                                       bank8        00000
__Hbank9                                       bank9        00000
__Hbigram                                      bigram       00000
__HbssBANK0                                    bssBANK0     0005E
__HbssBANK1                                    bssBANK1     0005E
__HbssBANK2                                    bssBANK2     0005E
__HbssCOMMON                                   bssCOMMON    0005E
__Hcinit                                       cinit        0005E
__Hclrtext                                     clrtext      00000
__Hcode                                        code         00000
__Hcommon                                      common       00000
__Hconfig                                      config       08009
__HcstackBANK0                                 cstackBANK0  0005E
__HcstackBANK1                                 cstackBANK1  0005E
__HcstackCOMMON                                cstackCOMMON 0005E
__HdataBANK0                                   dataBANK0    0005E
__HdataBANK2                                   dataBANK2    0005E
__Heeprom_data                                 eeprom_data  00000
__Hend_init                                    end_init     00029
__Hfunctab                                     functab      00000
__Hheap                                        heap         00000
__HidataBANK0                                  idataBANK0   0005E
__HidataBANK2                                  idataBANK2   0005E
__Hinit                                        init         00026
__Hinittext                                    inittext     0005E
__Hintentry                                    intentry     00026
__Hmaintext                                    maintext     00000
__HnvBANK2                                     nvBANK2      0005E
__Hpowerup                                     powerup      00000
__Hram                                         ram          00000
__Hreset_vec                                   reset_vec    00002
__Hsfr0                                        sfr0         00000
__Hsfr1                                        sfr1         00000
__Hsfr10                                       sfr10        00000
__Hsfr11                                       sfr11        00000
__Hsfr12                                       sfr12        00000
__Hsfr13                                       sfr13        00000
__Hsfr14                                       sfr14        00000
__Hsfr15                                       sfr15        00000
__Hsfr16                                       sfr16        00000
__Hsfr17                                       sfr17        00000
__Hsfr18                                       sfr18        00000
__Hsfr19                                       sfr19        00000
__Hsfr2                                        sfr2         00000
__Hsfr20                                       sfr20        00000
__Hsfr21                                       sfr21        00000
__Hsfr22                                       sfr22        00000
__Hsfr23                                       sfr23        00000
__Hsfr24                                       sfr24        00000
__Hsfr25                                       sfr25        00000
__Hsfr26                                       sfr26        00000
__Hsfr27                                       sfr27        00000
__Hsfr28                                       sfr28        00000
__Hsfr29                                       sfr29        00000
__Hsfr3                                        sfr3         00000
__Hsfr30                                       sfr30        00000
__Hsfr31                                       sfr31        00000
__Hsfr4                                        sfr4         00000
__Hsfr5                                        sfr5         00000
__Hsfr6                                        sfr6         00000
__Hsfr7                                        sfr7         00000
__Hsfr8                                        sfr8         00000
__Hsfr9                                        sfr9         00000
__Hsivt                                        sivt         00026
__Hspace_0                                     (abs)        01000
__Hspace_1                                     (abs)        00141
__Hspace_2                                     (abs)        00000
__Hspace_3                                     (abs)        00000
__Hspace_4                                     (abs)        10010
__Hstack                                       stack        00000
__Hstrings                                     strings      00000
__Hstringtext1                                 stringtext1  0005E
__Htext                                        text         00000
__L__absolute__                                __absolute__ 00000
__Labs1                                        abs1         00000
__Lbank0                                       bank0        00000
__Lbank1                                       bank1        00000
__Lbank10                                      bank10       00000
__Lbank11                                      bank11       00000
__Lbank12                                      bank12       00000
__Lbank13                                      bank13       00000
__Lbank14                                      bank14       00000
__Lbank15                                      bank15       00000
__Lbank16                                      bank16       00000
__Lbank17                                      bank17       00000
__Lbank18                                      bank18       00000
__Lbank19                                      bank19       00000
__Lbank2                                       bank2        00000
__Lbank20                                      bank20       00000
__Lbank21                                      bank21       00000
__Lbank22                                      bank22       00000
__Lbank23                                      bank23       00000
__Lbank24                                      bank24       00000
__Lbank25                                      bank25       00000
__Lbank26                                      bank26       00000
__Lbank27                                      bank27       00000
__Lbank28                                      bank28       00000
__Lbank29                                      bank29       00000
__Lbank3                                       bank3        00000
__Lbank30                                      bank30       00000
__Lbank31                                      bank31       00000
__Lbank4                                       bank4        00000
__Lbank5                                       bank5        00000
__Lbank6                                       bank6        00000
__Lbank7                                       bank7        00000
__Lbank8                                       bank8        00000
__Lbank9                                       bank9        00000
__Lbigram                                      bigram       00000
__LbssBANK0                                    bssBANK0     0005E
__LbssBANK1                                    bssBANK1     0005E
__LbssBANK2                                    bssBANK2     0005E
__LbssCOMMON                                   bssCOMMON    0005E
__Lcinit                                       cinit        00029
__Lclrtext                                     clrtext      00000
__Lcode                                        code         00000
__Lcommon                                      common       00000
__Lconfig                                      config       00000
__LcstackBANK0                                 cstackBANK0  0005E
__LcstackBANK1                                 cstackBANK1  0005E
__LcstackCOMMON                                cstackCOMMON 0005E
__LdataBANK0                                   dataBANK0    0005E
__LdataBANK2                                   dataBANK2    0005E
__Leeprom_data                                 eeprom_data  00000
__Lend_init                                    end_init     00026
__Lfunctab                                     functab      00000
__Lheap                                        heap         00000
__LidataBANK0                                  idataBANK0   0005E
__LidataBANK2                                  idataBANK2   0005E
__Linit                                        init         00026
__Linittext                                    inittext     0005E
__Lintentry                                    intentry     00004
__Lmaintext                                    maintext     00000
__LnvBANK2                                     nvBANK2      0005E
__Lpowerup                                     powerup      00000
__Lram                                         ram          00000
__Lreset_vec                                   reset_vec    00000
__Lsfr0                                        sfr0         00000
__Lsfr1                                        sfr1         00000
__Lsfr10                                       sfr10        00000
__Lsfr11                                       sfr11        00000
__Lsfr12                                       sfr12        00000
__Lsfr13                                       sfr13        00000
__Lsfr14                                       sfr14        00000
__Lsfr15                                       sfr15        00000
__Lsfr16                                       sfr16        00000
__Lsfr17                                       sfr17        00000
__Lsfr18                                       sfr18        00000
__Lsfr19                                       sfr19        00000
__Lsfr2                                        sfr2         00000
__Lsfr20                                       sfr20        00000
__Lsfr21                                       sfr21        00000
__Lsfr22                                       sfr22        00000
__Lsfr23                                       sfr23        00000
__Lsfr24                                       sfr24        00000
__Lsfr25                                       sfr25        00000
__Lsfr26                                       sfr26        00000
__Lsfr27                                       sfr27        00000
__Lsfr28                                       sfr28        00000
__Lsfr29                                       sfr29        00000
__Lsfr3                                        sfr3         00000
__Lsfr30                                       sfr30        00000
__Lsfr31                                       sfr31        00000
__Lsfr4                                        sfr4         00000
__Lsfr5                                        sfr5         00000
__Lsfr6                                        sfr6         00000
__Lsfr7                                        sfr7         00000
__Lsfr8                                        sfr8         00000
__Lsfr9                                        sfr9         00000
__Lsivt                                        sivt         00026
__Lspace_0                                     (abs)        00000
__Lspace_1                                     (abs)        00000
__Lspace_2                                     (abs)        00000
__Lspace_3                                     (abs)        00000
__Lspace_4                                     (abs)        00000
__Lstack                                       stack        00000
__Lstrings                                     strings      00000
__Lstringtext1                                 stringtext1  0005E
__Ltext                                        text         00000
__S0                                           (abs)        01000
__S1                                           (abs)        00141
__S3                                           (abs)        00000
__Umul8_16                                     text9        00A5A
__Umul8_16@multiplicand                        cstackBANK1  000A0
__Umul8_16@multiplier                          cstackBANK1  000A8
__Umul8_16@product                             cstackBANK1  000A4
__Umul8_16@word_mpld                           cstackBANK1  000A6
___atdiv                                       text15       00C66
___atdiv@counter                               cstackBANK1  000B0
___atdiv@dividend                              cstackBANK1  000AC
___atdiv@divisor                               cstackBANK1  000A9
___atdiv@quotient                              cstackBANK1  000B2
___atdiv@sign                                  cstackBANK1  000B1
___flmul                                       text8        0005E
___flmul@a                                     cstackBANK1  000AD
___flmul@aexp                                  cstackBANK1  000BB
___flmul@b                                     cstackBANK1  000A9
___flmul@bexp                                  cstackBANK1  000BC
___flmul@grs                                   cstackBANK1  000B7
___flmul@prod                                  cstackBANK1  000BD
___flmul@sign                                  cstackBANK1  000B6
___flmul@temp                                  cstackBANK1  000C1
___fltol                                       text7        00BF5
___fltol@exp1                                  cstackBANK1  000CC
___fltol@f1                                    cstackBANK1  000C3
___fltol@sign1                                 cstackBANK1  000CB
___heap_hi                                     (abs)        00000
___heap_lo                                     (abs)        00000
___int_sp                                      stack        00000
___int_stack_hi                                stack        00000
___int_stack_lo                                stack        00000
___latbits                                     (abs)        00001
___sp                                          stack        00000
___stack_hi                                    stack        00000
___stack_lo                                    stack        00000
___stackhi                                     (abs)        00000
___stacklo                                     (abs)        00000
___tmul                                        text14       00AF6
___tmul@multiplicand                           cstackBANK1  000A3
___tmul@multiplier                             cstackBANK1  000A0
___tmul@product                                cstackBANK1  000A6
___xxtofl                                      text51       00DFD
___xxtofl@arg                                  cstackBANK0  00030
___xxtofl@exp                                  cstackBANK0  0002F
___xxtofl@sign                                 cstackBANK0  0002E
___xxtofl@val                                  cstackBANK0  00026
__end_of_ADC_Initialize                        text41       008ED
__end_of_CMP1_GetOutputStatus                  text2        0002F
__end_of_CMP1_Initialize                       text40       0000B
__end_of_DAC_Initialize                        text39       00011
__end_of_EPWM1_Initialize                      text38       0095A
__end_of_EPWM1_LoadDutyValue                   text18       00A1B
__end_of_EUSART_Initialize                     text34       00AA3
__end_of_EUSART_Read                           text43       00979
__end_of_EUSART_SetErrorHandler                text37       00907
__end_of_EUSART_SetFramingErrorHandler         text36       00910
__end_of_EUSART_SetOverrunErrorHandler         text35       00919
__end_of_EUSART_Write                          text10       0094C
__end_of_EUSART_is_rx_ready                    text42       00005
__end_of_FVR_Initialize                        text33       00015
__end_of_INTERRUPT_InterruptManager            intentry     00026
__end_of_OSCILLATOR_Initialize                 text32       008E5
__end_of_PIN_MANAGER_IOC                       text55       00003
__end_of_PIN_MANAGER_Initialize                text31       009B3
__end_of_SYSTEM_Initialize                     text23       00AF6
__end_of_TMR0_Initialize                       text30       0092C
__end_of_TMR0_ReadTimer                        text22       0001F
__end_of_TMR1_DefaultGateInterruptHandler      text46       00004
__end_of_TMR1_GATE_ISR                         text45       00969
__end_of_TMR1_Initialize                       text28       009FF
__end_of_TMR1_ReadTimer                        text54       009E3
__end_of_TMR1_Reload                           text52       008FE
__end_of_TMR1_SetGateInterruptHandler          text29       00922
__end_of_TMR1_WriteTimer                       text53       0098A
__end_of_TMR2_Initialize                       text27       008F5
__end_of_TMR4_Initialize                       text26       00936
__end_of_TMR4_StartTimer                       text16       0002B
__end_of_TMR4_StopTimer                        text21       00022
__end_of_TMR6_Initialize                       text25       00940
__end_of_TMR6_LoadPeriodRegister               text20       00028
__end_of_TMR6_WriteTimer                       text19       008D2
__end_of_WDT_Initialize                        text24       00019
__end_of__Umul8_16                             text9        00A7E
__end_of___atdiv                               text15       00CDF
__end_of___flmul                               text8        00299
__end_of___fltol                               text7        00C66
__end_of___tmul                                text14       00B21
__end_of___xxtofl                              text51       00EA8
__end_of__initialization                       cinit        0005A
__end_of_analisa_Rx                            text17       00800
__end_of_controlchoose                         text11       009CA
__end_of_daUmPasso                             text4        00ACB
__end_of_definePassoMotor                      text5        00B84
__end_of_envia_Tx                              text6        00DFD
__end_of_fluxcontrol                           text13       00726
__end_of_fluxpos                               text3        00D58
__end_of_lookupTable                           stringtext1  008CC
__end_of_main                                  maintext     01000
__end_of_mede_height                           text47       00F54
__end_of_pwmcontrol                            text12       00622
__end_of_setaPorta                             text1        00A37
__end_ofi1__Umul8_16                           text50       00A5A
__end_ofi1___flmul                             text49       004D4
__end_ofi1___fltol                             text48       00BF5
__initialization                               cinit        00029
__pbssBANK0                                    bssBANK0     0004A
__pbssBANK1                                    bssBANK1     000CE
__pbssBANK2                                    bssBANK2     0013A
__pbssCOMMON                                   bssCOMMON    0007D
__pcstackBANK0                                 cstackBANK0  00020
__pcstackBANK1                                 cstackBANK1  000A0
__pcstackCOMMON                                cstackCOMMON 00070
__pdataBANK0                                   dataBANK0    0006B
__pdataBANK2                                   dataBANK2    00120
__pidataBANK0                                  idataBANK0   0002F
__pidataBANK2                                  idataBANK2   0098A
__pintentry                                    intentry     00004
__pmaintext                                    maintext     00F54
__pnvBANK2                                     nvBANK2      00132
__pstringtext1                                 stringtext1  00800
__ptext1                                       text1        00A1B
__ptext10                                      text10       00940
__ptext11                                      text11       009B3
__ptext12                                      text12       004D4
__ptext13                                      text13       00622
__ptext14                                      text14       00AF6
__ptext15                                      text15       00C66
__ptext16                                      text16       00028
__ptext17                                      text17       00726
__ptext18                                      text18       009FF
__ptext19                                      text19       008CC
__ptext2                                       text2        0002B
__ptext20                                      text20       00022
__ptext21                                      text21       0001F
__ptext22                                      text22       00019
__ptext23                                      text23       00ACB
__ptext24                                      text24       00015
__ptext25                                      text25       00936
__ptext26                                      text26       0092C
__ptext27                                      text27       008ED
__ptext28                                      text28       009E3
__ptext29                                      text29       00919
__ptext3                                       text3        00CDF
__ptext30                                      text30       00922
__ptext31                                      text31       0099C
__ptext32                                      text32       008DE
__ptext33                                      text33       00011
__ptext34                                      text34       00A7E
__ptext35                                      text35       00910
__ptext36                                      text36       00907
__ptext37                                      text37       008FE
__ptext38                                      text38       0094C
__ptext39                                      text39       0000B
__ptext4                                       text4        00AA3
__ptext40                                      text40       00005
__ptext41                                      text41       008E5
__ptext42                                      text42       00000
__ptext43                                      text43       00969
__ptext45                                      text45       0095A
__ptext46                                      text46       00003
__ptext47                                      text47       00EA8
__ptext48                                      text48       00B84
__ptext49                                      text49       00299
__ptext5                                       text5        00B21
__ptext50                                      text50       00A37
__ptext51                                      text51       00DFD
__ptext52                                      text52       008F5
__ptext53                                      text53       00979
__ptext54                                      text54       009CA
__ptext55                                      text55       00002
__ptext6                                       text6        00D58
__ptext7                                       text7        00BF5
__ptext8                                       text8        0005E
__ptext9                                       text9        00A5A
_analisa_Rx                                    text17       00726
_avg_tempo_voo                                 bssBANK0     00052
_balldist                                      bssBANK0     0005C
_ballset                                       bssBANK0     00059
_bufferRx                                      bssBANK0     0004A
_controlchoice                                 bssBANK1     000ED
_controlchoose                                 text11       009B3
_countRx                                       bssBANK1     000E9
_count_Tx                                      bssBANK1     000E8
_daUmPasso                                     text4        00AA3
_dc                                            bssBANK1     000D7
_definePassoMotor                              text5        00B21
_envia_Tx                                      text6        00D58
_error                                         bssBANK1     000D4
_errorp                                        bssBANK0     0005F
_eusartRxLastError                             bssBANK1     000EE
_fim_curso                                     bssBANK1     000EB
_first_read                                    dataBANK0    0006F
_float_temp                                    dataBANK0    0006B
_flux                                          bssBANK0     00056
_fluxcontrol                                   text13       00622
_fluxpos                                       text3        00CDF
_height                                        bssBANK1     000E1
_lookupTable                                   stringtext1  00800
_main                                          maintext     00F54
_mede_height                                   text47       00EA8
_mede_height$1957                              cstackBANK0  00046
_nao_salva                                     bssBANK1     000E7
_outpre                                        bssBANK1     000CE
_output                                        bssBANK1     000E3
_outputsum                                     bssBANK1     000D1
_passo                                         bssBANK1     000EC
_passo_ctrl                                    bssBANK1     000EA
_position                                      bssBANK1     000DF
_pwmcontrol                                    text12       004D4
_setaPorta                                     text1        00A1B
_sp_height                                     bssBANK0     00062
_sp_position                                   bssBANK1     000DD
_tempo_voo                                     bssBANK0     00064
_timer0ReloadVal                               bssCOMMON    0007D
_timer1ReloadVal                               bssBANK1     000E5
_vRx                                           bssBANK1     000D9
_vTx                                           bssBANK1     000DB
btemp                                          (abs)        0007E
clear_ram0                                     clrtext      008D2
daUmPasso@sentido                              cstackBANK1  000A3
definePassoMotor@passom                        cstackBANK1  000A2
definePassoMotor@sentido                       cstackBANK1  000A0
end_of_initialization                          cinit        0005A
i1__Umul8_16                                   text50       00A37
i1__Umul8_16@multiplicand                      cstackCOMMON 00070
i1__Umul8_16@multiplier                        cstackCOMMON 00078
i1__Umul8_16@product                           cstackCOMMON 00074
i1__Umul8_16@word_mpld                         cstackCOMMON 00076
i1___flmul                                     text49       00299
i1___flmul@a                                   cstackBANK0  0002A
i1___flmul@aexp                                cstackBANK0  00038
i1___flmul@b                                   cstackBANK0  00026
i1___flmul@bexp                                cstackBANK0  00039
i1___flmul@grs                                 cstackBANK0  00034
i1___flmul@prod                                cstackBANK0  0003A
i1___flmul@sign                                cstackBANK0  00033
i1___flmul@temp                                cstackBANK0  0003E
i1___fltol                                     text48       00B84
i1___fltol@exp1                                cstackBANK0  00025
i1___fltol@f1                                  cstackCOMMON 00079
i1___fltol@sign1                               cstackBANK0  00024
init_ram                                       inittext     008D8
int$flags                                      (abs)        0007E
intlevel0                                      functab      00000
intlevel1                                      functab      00000
intlevel2                                      functab      00000
intlevel3                                      functab      00000
intlevel4                                      functab      00000
intlevel5                                      functab      00000
reset_vec                                      reset_vec    00000
start                                          init         00026
start_initialization                           cinit        00029
wtemp0                                         (abs)        0007E
