

Microchip MPLAB XC8 Assembler V2.46 build 20240104201356 
                                                                                               Tue Aug 27 11:41:02 2024

Microchip MPLAB XC8 C Compiler v2.46 (Free license) build 20240104201356 Og1 
     1                           	processor	16F1827
     2                           	pagewidth 120
     3                           	opt	flic
     4                           	psect	idataBANK0,global,class=CODE,delta=2,noexec
     5                           	psect	cinit,global,class=CODE,merge=1,delta=2
     6                           	psect	bssBANK0,global,class=BANK0,space=1,delta=1,noexec
     7                           	psect	dataBANK0,global,class=BANK0,space=1,delta=1,noexec
     8                           	psect	inittext,global,class=CODE,delta=2
     9                           	psect	clrtext,global,class=CODE,delta=2
    10                           	psect	cstackCOMMON,global,class=COMMON,space=1,delta=1,noexec
    11                           	psect	cstackBANK0,global,class=BANK0,space=1,delta=1,noexec
    12                           	psect	maintext,global,class=CODE,merge=1,split=1,delta=2
    13                           	psect	text1,local,class=CODE,merge=1,delta=2
    14                           	psect	text2,local,class=CODE,merge=1,delta=2
    15                           	psect	text3,local,class=CODE,merge=1,delta=2
    16                           	psect	text4,local,class=CODE,merge=1,delta=2
    17                           	psect	text5,local,class=CODE,merge=1,delta=2,group=1
    18                           	psect	text6,local,class=CODE,merge=1,delta=2,group=1
    19                           	psect	text7,local,class=CODE,merge=1,delta=2
    20                           	psect	text8,local,class=CODE,merge=1,delta=2
    21                           	psect	text9,local,class=CODE,merge=1,delta=2
    22                           	psect	text10,local,class=CODE,merge=1,delta=2
    23                           	psect	text11,local,class=CODE,merge=1,delta=2
    24                           	psect	text12,local,class=CODE,merge=1,delta=2
    25                           	psect	text13,local,class=CODE,merge=1,delta=2
    26                           	psect	text14,local,class=CODE,merge=1,delta=2
    27                           	psect	text15,local,class=CODE,merge=1,delta=2
    28                           	psect	text16,local,class=CODE,merge=1,delta=2
    29                           	psect	text17,local,class=CODE,merge=1,delta=2
    30                           	psect	intentry,global,class=CODE,delta=2
    31                           	psect	text19,local,class=CODE,merge=1,delta=2
    32                           	psect	config,global,abs,ovrld,class=CONFIG,space=4,delta=2,noexec
    33                           	dabs	1,0x7E,2
    34     0000                     
    35                           ; Generated 07/09/2023 GMT
    36                           ; 
    37                           ; Copyright © 2023, Microchip Technology Inc. and its subsidiaries ("Microchip")
    38                           ; All rights reserved.
    39                           ; 
    40                           ; This software is developed by Microchip Technology Inc. and its subsidiaries ("Microch
      +                          ip").
    41                           ; 
    42                           ; Redistribution and use in source and binary forms, with or without modification, are
    43                           ; permitted provided that the following conditions are met:
    44                           ; 
    45                           ;     1. Redistributions of source code must retain the above copyright notice, this lis
      +                          t of
    46                           ;        conditions and the following disclaimer.
    47                           ; 
    48                           ;     2. Redistributions in binary form must reproduce the above copyright notice, this 
      +                          list
    49                           ;        of conditions and the following disclaimer in the documentation and/or other
    50                           ;        materials provided with the distribution. Publication is not required when
    51                           ;        this file is used in an embedded application.
    52                           ; 
    53                           ;     3. Microchip's name may not be used to endorse or promote products derived from th
      +                          is
    54                           ;        software without specific prior written permission.
    55                           ; 
    56                           ; THIS SOFTWARE IS PROVIDED BY MICROCHIP "AS IS" AND ANY EXPRESS OR IMPLIED WARRANTIES,
    57                           ; INCLUDING, BUT NOT LIMITED TO, THE IMPLIED WARRANTIES OF MERCHANTABILITY AND FITNESS F
      +                          OR
    58                           ; PURPOSE ARE DISCLAIMED.  IN NO EVENT SHALL MICROCHIP BE LIABLE FOR ANY DIRECT, INDIREC
      +                          T,
    59                           ; INCIDENTAL, SPECIAL, EXEMPLARY, OR CONSEQUENTIAL DAMAGES (INCLUDING BUT NOT LIMITED TO
    60                           ; PROCUREMENT OF SUBSTITUTE GOODS OR SERVICES; LOSS OF USE, DATA OR PROFITS; OR BUSINESS
    61                           ; INTERRUPTION) HOWSOEVER CAUSED AND ON ANY THEORY OF LIABILITY, WHETHER IN CONTRACT, ST
      +                          RICT
    62                           ; LIABILITY, OR TORT (INCLUDING NEGLIGENCE OR OTHERWISE) ARISING IN ANY WAY OUT OF THE U
      +                          SE OF
    63                           ; THIS SOFTWARE, EVEN IF ADVISED OF THE POSSIBILITY OF SUCH DAMAGE.
    64                           ; 
    65                           ; 
    66                           ; Code-generator required, PIC16F1827 Definitions
    67                           ; 
    68                           ; SFR Addresses
    69     0000                     	;# 
    70     0001                     	;# 
    71     0002                     	;# 
    72     0003                     	;# 
    73     0004                     	;# 
    74     0005                     	;# 
    75     0006                     	;# 
    76     0007                     	;# 
    77     0008                     	;# 
    78     0009                     	;# 
    79     000A                     	;# 
    80     000B                     	;# 
    81     000C                     	;# 
    82     000D                     	;# 
    83     0011                     	;# 
    84     0012                     	;# 
    85     0013                     	;# 
    86     0014                     	;# 
    87     0015                     	;# 
    88     0016                     	;# 
    89     0016                     	;# 
    90     0017                     	;# 
    91     0018                     	;# 
    92     0019                     	;# 
    93     001A                     	;# 
    94     001B                     	;# 
    95     001C                     	;# 
    96     001E                     	;# 
    97     001F                     	;# 
    98     008C                     	;# 
    99     008D                     	;# 
   100     0091                     	;# 
   101     0092                     	;# 
   102     0093                     	;# 
   103     0094                     	;# 
   104     0095                     	;# 
   105     0096                     	;# 
   106     0097                     	;# 
   107     0098                     	;# 
   108     0099                     	;# 
   109     009A                     	;# 
   110     009B                     	;# 
   111     009B                     	;# 
   112     009C                     	;# 
   113     009D                     	;# 
   114     009E                     	;# 
   115     010C                     	;# 
   116     010D                     	;# 
   117     0111                     	;# 
   118     0112                     	;# 
   119     0113                     	;# 
   120     0114                     	;# 
   121     0115                     	;# 
   122     0116                     	;# 
   123     0117                     	;# 
   124     0118                     	;# 
   125     0119                     	;# 
   126     011A                     	;# 
   127     011B                     	;# 
   128     011D                     	;# 
   129     011E                     	;# 
   130     018C                     	;# 
   131     018D                     	;# 
   132     0191                     	;# 
   133     0191                     	;# 
   134     0192                     	;# 
   135     0193                     	;# 
   136     0193                     	;# 
   137     0193                     	;# 
   138     0194                     	;# 
   139     0195                     	;# 
   140     0196                     	;# 
   141     0199                     	;# 
   142     019A                     	;# 
   143     019B                     	;# 
   144     019B                     	;# 
   145     019B                     	;# 
   146     019B                     	;# 
   147     019C                     	;# 
   148     019C                     	;# 
   149     019D                     	;# 
   150     019E                     	;# 
   151     019F                     	;# 
   152     020C                     	;# 
   153     020D                     	;# 
   154     0211                     	;# 
   155     0211                     	;# 
   156     0212                     	;# 
   157     0212                     	;# 
   158     0213                     	;# 
   159     0213                     	;# 
   160     0214                     	;# 
   161     0214                     	;# 
   162     0215                     	;# 
   163     0215                     	;# 
   164     0215                     	;# 
   165     0216                     	;# 
   166     0216                     	;# 
   167     0217                     	;# 
   168     0217                     	;# 
   169     0219                     	;# 
   170     021A                     	;# 
   171     021B                     	;# 
   172     021C                     	;# 
   173     021D                     	;# 
   174     021E                     	;# 
   175     021F                     	;# 
   176     0291                     	;# 
   177     0291                     	;# 
   178     0292                     	;# 
   179     0293                     	;# 
   180     0294                     	;# 
   181     0295                     	;# 
   182     0295                     	;# 
   183     0296                     	;# 
   184     0298                     	;# 
   185     0298                     	;# 
   186     0299                     	;# 
   187     029A                     	;# 
   188     029B                     	;# 
   189     029C                     	;# 
   190     029C                     	;# 
   191     029D                     	;# 
   192     029E                     	;# 
   193     029E                     	;# 
   194     0311                     	;# 
   195     0311                     	;# 
   196     0312                     	;# 
   197     0313                     	;# 
   198     0318                     	;# 
   199     0318                     	;# 
   200     0319                     	;# 
   201     031A                     	;# 
   202     0394                     	;# 
   203     0395                     	;# 
   204     0396                     	;# 
   205     039A                     	;# 
   206     039C                     	;# 
   207     039D                     	;# 
   208     039E                     	;# 
   209     039F                     	;# 
   210     0415                     	;# 
   211     0416                     	;# 
   212     0417                     	;# 
   213     041C                     	;# 
   214     041D                     	;# 
   215     041E                     	;# 
   216     0FE4                     	;# 
   217     0FE5                     	;# 
   218     0FE6                     	;# 
   219     0FE7                     	;# 
   220     0FE8                     	;# 
   221     0FE9                     	;# 
   222     0FEA                     	;# 
   223     0FEB                     	;# 
   224     0FED                     	;# 
   225     0FEE                     	;# 
   226     0FEF                     	;# 
   227     0000                     	;# 
   228     0001                     	;# 
   229     0002                     	;# 
   230     0003                     	;# 
   231     0004                     	;# 
   232     0005                     	;# 
   233     0006                     	;# 
   234     0007                     	;# 
   235     0008                     	;# 
   236     0009                     	;# 
   237     000A                     	;# 
   238     000B                     	;# 
   239     000C                     	;# 
   240     000D                     	;# 
   241     0011                     	;# 
   242     0012                     	;# 
   243     0013                     	;# 
   244     0014                     	;# 
   245     0015                     	;# 
   246     0016                     	;# 
   247     0016                     	;# 
   248     0017                     	;# 
   249     0018                     	;# 
   250     0019                     	;# 
   251     001A                     	;# 
   252     001B                     	;# 
   253     001C                     	;# 
   254     001E                     	;# 
   255     001F                     	;# 
   256     008C                     	;# 
   257     008D                     	;# 
   258     0091                     	;# 
   259     0092                     	;# 
   260     0093                     	;# 
   261     0094                     	;# 
   262     0095                     	;# 
   263     0096                     	;# 
   264     0097                     	;# 
   265     0098                     	;# 
   266     0099                     	;# 
   267     009A                     	;# 
   268     009B                     	;# 
   269     009B                     	;# 
   270     009C                     	;# 
   271     009D                     	;# 
   272     009E                     	;# 
   273     010C                     	;# 
   274     010D                     	;# 
   275     0111                     	;# 
   276     0112                     	;# 
   277     0113                     	;# 
   278     0114                     	;# 
   279     0115                     	;# 
   280     0116                     	;# 
   281     0117                     	;# 
   282     0118                     	;# 
   283     0119                     	;# 
   284     011A                     	;# 
   285     011B                     	;# 
   286     011D                     	;# 
   287     011E                     	;# 
   288     018C                     	;# 
   289     018D                     	;# 
   290     0191                     	;# 
   291     0191                     	;# 
   292     0192                     	;# 
   293     0193                     	;# 
   294     0193                     	;# 
   295     0193                     	;# 
   296     0194                     	;# 
   297     0195                     	;# 
   298     0196                     	;# 
   299     0199                     	;# 
   300     019A                     	;# 
   301     019B                     	;# 
   302     019B                     	;# 
   303     019B                     	;# 
   304     019B                     	;# 
   305     019C                     	;# 
   306     019C                     	;# 
   307     019D                     	;# 
   308     019E                     	;# 
   309     019F                     	;# 
   310     020C                     	;# 
   311     020D                     	;# 
   312     0211                     	;# 
   313     0211                     	;# 
   314     0212                     	;# 
   315     0212                     	;# 
   316     0213                     	;# 
   317     0213                     	;# 
   318     0214                     	;# 
   319     0214                     	;# 
   320     0215                     	;# 
   321     0215                     	;# 
   322     0215                     	;# 
   323     0216                     	;# 
   324     0216                     	;# 
   325     0217                     	;# 
   326     0217                     	;# 
   327     0219                     	;# 
   328     021A                     	;# 
   329     021B                     	;# 
   330     021C                     	;# 
   331     021D                     	;# 
   332     021E                     	;# 
   333     021F                     	;# 
   334     0291                     	;# 
   335     0291                     	;# 
   336     0292                     	;# 
   337     0293                     	;# 
   338     0294                     	;# 
   339     0295                     	;# 
   340     0295                     	;# 
   341     0296                     	;# 
   342     0298                     	;# 
   343     0298                     	;# 
   344     0299                     	;# 
   345     029A                     	;# 
   346     029B                     	;# 
   347     029C                     	;# 
   348     029C                     	;# 
   349     029D                     	;# 
   350     029E                     	;# 
   351     029E                     	;# 
   352     0311                     	;# 
   353     0311                     	;# 
   354     0312                     	;# 
   355     0313                     	;# 
   356     0318                     	;# 
   357     0318                     	;# 
   358     0319                     	;# 
   359     031A                     	;# 
   360     0394                     	;# 
   361     0395                     	;# 
   362     0396                     	;# 
   363     039A                     	;# 
   364     039C                     	;# 
   365     039D                     	;# 
   366     039E                     	;# 
   367     039F                     	;# 
   368     0415                     	;# 
   369     0416                     	;# 
   370     0417                     	;# 
   371     041C                     	;# 
   372     041D                     	;# 
   373     041E                     	;# 
   374     0FE4                     	;# 
   375     0FE5                     	;# 
   376     0FE6                     	;# 
   377     0FE7                     	;# 
   378     0FE8                     	;# 
   379     0FE9                     	;# 
   380     0FEA                     	;# 
   381     0FEB                     	;# 
   382     0FED                     	;# 
   383     0FEE                     	;# 
   384     0FEF                     	;# 
   385     0000                     	;# 
   386     0001                     	;# 
   387     0002                     	;# 
   388     0003                     	;# 
   389     0004                     	;# 
   390     0005                     	;# 
   391     0006                     	;# 
   392     0007                     	;# 
   393     0008                     	;# 
   394     0009                     	;# 
   395     000A                     	;# 
   396     000B                     	;# 
   397     000C                     	;# 
   398     000D                     	;# 
   399     0011                     	;# 
   400     0012                     	;# 
   401     0013                     	;# 
   402     0014                     	;# 
   403     0015                     	;# 
   404     0016                     	;# 
   405     0016                     	;# 
   406     0017                     	;# 
   407     0018                     	;# 
   408     0019                     	;# 
   409     001A                     	;# 
   410     001B                     	;# 
   411     001C                     	;# 
   412     001E                     	;# 
   413     001F                     	;# 
   414     008C                     	;# 
   415     008D                     	;# 
   416     0091                     	;# 
   417     0092                     	;# 
   418     0093                     	;# 
   419     0094                     	;# 
   420     0095                     	;# 
   421     0096                     	;# 
   422     0097                     	;# 
   423     0098                     	;# 
   424     0099                     	;# 
   425     009A                     	;# 
   426     009B                     	;# 
   427     009B                     	;# 
   428     009C                     	;# 
   429     009D                     	;# 
   430     009E                     	;# 
   431     010C                     	;# 
   432     010D                     	;# 
   433     0111                     	;# 
   434     0112                     	;# 
   435     0113                     	;# 
   436     0114                     	;# 
   437     0115                     	;# 
   438     0116                     	;# 
   439     0117                     	;# 
   440     0118                     	;# 
   441     0119                     	;# 
   442     011A                     	;# 
   443     011B                     	;# 
   444     011D                     	;# 
   445     011E                     	;# 
   446     018C                     	;# 
   447     018D                     	;# 
   448     0191                     	;# 
   449     0191                     	;# 
   450     0192                     	;# 
   451     0193                     	;# 
   452     0193                     	;# 
   453     0193                     	;# 
   454     0194                     	;# 
   455     0195                     	;# 
   456     0196                     	;# 
   457     0199                     	;# 
   458     019A                     	;# 
   459     019B                     	;# 
   460     019B                     	;# 
   461     019B                     	;# 
   462     019B                     	;# 
   463     019C                     	;# 
   464     019C                     	;# 
   465     019D                     	;# 
   466     019E                     	;# 
   467     019F                     	;# 
   468     020C                     	;# 
   469     020D                     	;# 
   470     0211                     	;# 
   471     0211                     	;# 
   472     0212                     	;# 
   473     0212                     	;# 
   474     0213                     	;# 
   475     0213                     	;# 
   476     0214                     	;# 
   477     0214                     	;# 
   478     0215                     	;# 
   479     0215                     	;# 
   480     0215                     	;# 
   481     0216                     	;# 
   482     0216                     	;# 
   483     0217                     	;# 
   484     0217                     	;# 
   485     0219                     	;# 
   486     021A                     	;# 
   487     021B                     	;# 
   488     021C                     	;# 
   489     021D                     	;# 
   490     021E                     	;# 
   491     021F                     	;# 
   492     0291                     	;# 
   493     0291                     	;# 
   494     0292                     	;# 
   495     0293                     	;# 
   496     0294                     	;# 
   497     0295                     	;# 
   498     0295                     	;# 
   499     0296                     	;# 
   500     0298                     	;# 
   501     0298                     	;# 
   502     0299                     	;# 
   503     029A                     	;# 
   504     029B                     	;# 
   505     029C                     	;# 
   506     029C                     	;# 
   507     029D                     	;# 
   508     029E                     	;# 
   509     029E                     	;# 
   510     0311                     	;# 
   511     0311                     	;# 
   512     0312                     	;# 
   513     0313                     	;# 
   514     0318                     	;# 
   515     0318                     	;# 
   516     0319                     	;# 
   517     031A                     	;# 
   518     0394                     	;# 
   519     0395                     	;# 
   520     0396                     	;# 
   521     039A                     	;# 
   522     039C                     	;# 
   523     039D                     	;# 
   524     039E                     	;# 
   525     039F                     	;# 
   526     0415                     	;# 
   527     0416                     	;# 
   528     0417                     	;# 
   529     041C                     	;# 
   530     041D                     	;# 
   531     041E                     	;# 
   532     0FE4                     	;# 
   533     0FE5                     	;# 
   534     0FE6                     	;# 
   535     0FE7                     	;# 
   536     0FE8                     	;# 
   537     0FE9                     	;# 
   538     0FEA                     	;# 
   539     0FEB                     	;# 
   540     0FED                     	;# 
   541     0FEE                     	;# 
   542     0FEF                     	;# 
   543     0000                     	;# 
   544     0001                     	;# 
   545     0002                     	;# 
   546     0003                     	;# 
   547     0004                     	;# 
   548     0005                     	;# 
   549     0006                     	;# 
   550     0007                     	;# 
   551     0008                     	;# 
   552     0009                     	;# 
   553     000A                     	;# 
   554     000B                     	;# 
   555     000C                     	;# 
   556     000D                     	;# 
   557     0011                     	;# 
   558     0012                     	;# 
   559     0013                     	;# 
   560     0014                     	;# 
   561     0015                     	;# 
   562     0016                     	;# 
   563     0016                     	;# 
   564     0017                     	;# 
   565     0018                     	;# 
   566     0019                     	;# 
   567     001A                     	;# 
   568     001B                     	;# 
   569     001C                     	;# 
   570     001E                     	;# 
   571     001F                     	;# 
   572     008C                     	;# 
   573     008D                     	;# 
   574     0091                     	;# 
   575     0092                     	;# 
   576     0093                     	;# 
   577     0094                     	;# 
   578     0095                     	;# 
   579     0096                     	;# 
   580     0097                     	;# 
   581     0098                     	;# 
   582     0099                     	;# 
   583     009A                     	;# 
   584     009B                     	;# 
   585     009B                     	;# 
   586     009C                     	;# 
   587     009D                     	;# 
   588     009E                     	;# 
   589     010C                     	;# 
   590     010D                     	;# 
   591     0111                     	;# 
   592     0112                     	;# 
   593     0113                     	;# 
   594     0114                     	;# 
   595     0115                     	;# 
   596     0116                     	;# 
   597     0117                     	;# 
   598     0118                     	;# 
   599     0119                     	;# 
   600     011A                     	;# 
   601     011B                     	;# 
   602     011D                     	;# 
   603     011E                     	;# 
   604     018C                     	;# 
   605     018D                     	;# 
   606     0191                     	;# 
   607     0191                     	;# 
   608     0192                     	;# 
   609     0193                     	;# 
   610     0193                     	;# 
   611     0193                     	;# 
   612     0194                     	;# 
   613     0195                     	;# 
   614     0196                     	;# 
   615     0199                     	;# 
   616     019A                     	;# 
   617     019B                     	;# 
   618     019B                     	;# 
   619     019B                     	;# 
   620     019B                     	;# 
   621     019C                     	;# 
   622     019C                     	;# 
   623     019D                     	;# 
   624     019E                     	;# 
   625     019F                     	;# 
   626     020C                     	;# 
   627     020D                     	;# 
   628     0211                     	;# 
   629     0211                     	;# 
   630     0212                     	;# 
   631     0212                     	;# 
   632     0213                     	;# 
   633     0213                     	;# 
   634     0214                     	;# 
   635     0214                     	;# 
   636     0215                     	;# 
   637     0215                     	;# 
   638     0215                     	;# 
   639     0216                     	;# 
   640     0216                     	;# 
   641     0217                     	;# 
   642     0217                     	;# 
   643     0219                     	;# 
   644     021A                     	;# 
   645     021B                     	;# 
   646     021C                     	;# 
   647     021D                     	;# 
   648     021E                     	;# 
   649     021F                     	;# 
   650     0291                     	;# 
   651     0291                     	;# 
   652     0292                     	;# 
   653     0293                     	;# 
   654     0294                     	;# 
   655     0295                     	;# 
   656     0295                     	;# 
   657     0296                     	;# 
   658     0298                     	;# 
   659     0298                     	;# 
   660     0299                     	;# 
   661     029A                     	;# 
   662     029B                     	;# 
   663     029C                     	;# 
   664     029C                     	;# 
   665     029D                     	;# 
   666     029E                     	;# 
   667     029E                     	;# 
   668     0311                     	;# 
   669     0311                     	;# 
   670     0312                     	;# 
   671     0313                     	;# 
   672     0318                     	;# 
   673     0318                     	;# 
   674     0319                     	;# 
   675     031A                     	;# 
   676     0394                     	;# 
   677     0395                     	;# 
   678     0396                     	;# 
   679     039A                     	;# 
   680     039C                     	;# 
   681     039D                     	;# 
   682     039E                     	;# 
   683     039F                     	;# 
   684     0415                     	;# 
   685     0416                     	;# 
   686     0417                     	;# 
   687     041C                     	;# 
   688     041D                     	;# 
   689     041E                     	;# 
   690     0FE4                     	;# 
   691     0FE5                     	;# 
   692     0FE6                     	;# 
   693     0FE7                     	;# 
   694     0FE8                     	;# 
   695     0FE9                     	;# 
   696     0FEA                     	;# 
   697     0FEB                     	;# 
   698     0FED                     	;# 
   699     0FEE                     	;# 
   700     0FEF                     	;# 
   701     0000                     	;# 
   702     0001                     	;# 
   703     0002                     	;# 
   704     0003                     	;# 
   705     0004                     	;# 
   706     0005                     	;# 
   707     0006                     	;# 
   708     0007                     	;# 
   709     0008                     	;# 
   710     0009                     	;# 
   711     000A                     	;# 
   712     000B                     	;# 
   713     000C                     	;# 
   714     000D                     	;# 
   715     0011                     	;# 
   716     0012                     	;# 
   717     0013                     	;# 
   718     0014                     	;# 
   719     0015                     	;# 
   720     0016                     	;# 
   721     0016                     	;# 
   722     0017                     	;# 
   723     0018                     	;# 
   724     0019                     	;# 
   725     001A                     	;# 
   726     001B                     	;# 
   727     001C                     	;# 
   728     001E                     	;# 
   729     001F                     	;# 
   730     008C                     	;# 
   731     008D                     	;# 
   732     0091                     	;# 
   733     0092                     	;# 
   734     0093                     	;# 
   735     0094                     	;# 
   736     0095                     	;# 
   737     0096                     	;# 
   738     0097                     	;# 
   739     0098                     	;# 
   740     0099                     	;# 
   741     009A                     	;# 
   742     009B                     	;# 
   743     009B                     	;# 
   744     009C                     	;# 
   745     009D                     	;# 
   746     009E                     	;# 
   747     010C                     	;# 
   748     010D                     	;# 
   749     0111                     	;# 
   750     0112                     	;# 
   751     0113                     	;# 
   752     0114                     	;# 
   753     0115                     	;# 
   754     0116                     	;# 
   755     0117                     	;# 
   756     0118                     	;# 
   757     0119                     	;# 
   758     011A                     	;# 
   759     011B                     	;# 
   760     011D                     	;# 
   761     011E                     	;# 
   762     018C                     	;# 
   763     018D                     	;# 
   764     0191                     	;# 
   765     0191                     	;# 
   766     0192                     	;# 
   767     0193                     	;# 
   768     0193                     	;# 
   769     0193                     	;# 
   770     0194                     	;# 
   771     0195                     	;# 
   772     0196                     	;# 
   773     0199                     	;# 
   774     019A                     	;# 
   775     019B                     	;# 
   776     019B                     	;# 
   777     019B                     	;# 
   778     019B                     	;# 
   779     019C                     	;# 
   780     019C                     	;# 
   781     019D                     	;# 
   782     019E                     	;# 
   783     019F                     	;# 
   784     020C                     	;# 
   785     020D                     	;# 
   786     0211                     	;# 
   787     0211                     	;# 
   788     0212                     	;# 
   789     0212                     	;# 
   790     0213                     	;# 
   791     0213                     	;# 
   792     0214                     	;# 
   793     0214                     	;# 
   794     0215                     	;# 
   795     0215                     	;# 
   796     0215                     	;# 
   797     0216                     	;# 
   798     0216                     	;# 
   799     0217                     	;# 
   800     0217                     	;# 
   801     0219                     	;# 
   802     021A                     	;# 
   803     021B                     	;# 
   804     021C                     	;# 
   805     021D                     	;# 
   806     021E                     	;# 
   807     021F                     	;# 
   808     0291                     	;# 
   809     0291                     	;# 
   810     0292                     	;# 
   811     0293                     	;# 
   812     0294                     	;# 
   813     0295                     	;# 
   814     0295                     	;# 
   815     0296                     	;# 
   816     0298                     	;# 
   817     0298                     	;# 
   818     0299                     	;# 
   819     029A                     	;# 
   820     029B                     	;# 
   821     029C                     	;# 
   822     029C                     	;# 
   823     029D                     	;# 
   824     029E                     	;# 
   825     029E                     	;# 
   826     0311                     	;# 
   827     0311                     	;# 
   828     0312                     	;# 
   829     0313                     	;# 
   830     0318                     	;# 
   831     0318                     	;# 
   832     0319                     	;# 
   833     031A                     	;# 
   834     0394                     	;# 
   835     0395                     	;# 
   836     0396                     	;# 
   837     039A                     	;# 
   838     039C                     	;# 
   839     039D                     	;# 
   840     039E                     	;# 
   841     039F                     	;# 
   842     0415                     	;# 
   843     0416                     	;# 
   844     0417                     	;# 
   845     041C                     	;# 
   846     041D                     	;# 
   847     041E                     	;# 
   848     0FE4                     	;# 
   849     0FE5                     	;# 
   850     0FE6                     	;# 
   851     0FE7                     	;# 
   852     0FE8                     	;# 
   853     0FE9                     	;# 
   854     0FEA                     	;# 
   855     0FEB                     	;# 
   856     0FED                     	;# 
   857     0FEE                     	;# 
   858     0FEF                     	;# 
   859     0000                     	;# 
   860     0001                     	;# 
   861     0002                     	;# 
   862     0003                     	;# 
   863     0004                     	;# 
   864     0005                     	;# 
   865     0006                     	;# 
   866     0007                     	;# 
   867     0008                     	;# 
   868     0009                     	;# 
   869     000A                     	;# 
   870     000B                     	;# 
   871     000C                     	;# 
   872     000D                     	;# 
   873     0011                     	;# 
   874     0012                     	;# 
   875     0013                     	;# 
   876     0014                     	;# 
   877     0015                     	;# 
   878     0016                     	;# 
   879     0016                     	;# 
   880     0017                     	;# 
   881     0018                     	;# 
   882     0019                     	;# 
   883     001A                     	;# 
   884     001B                     	;# 
   885     001C                     	;# 
   886     001E                     	;# 
   887     001F                     	;# 
   888     008C                     	;# 
   889     008D                     	;# 
   890     0091                     	;# 
   891     0092                     	;# 
   892     0093                     	;# 
   893     0094                     	;# 
   894     0095                     	;# 
   895     0096                     	;# 
   896     0097                     	;# 
   897     0098                     	;# 
   898     0099                     	;# 
   899     009A                     	;# 
   900     009B                     	;# 
   901     009B                     	;# 
   902     009C                     	;# 
   903     009D                     	;# 
   904     009E                     	;# 
   905     010C                     	;# 
   906     010D                     	;# 
   907     0111                     	;# 
   908     0112                     	;# 
   909     0113                     	;# 
   910     0114                     	;# 
   911     0115                     	;# 
   912     0116                     	;# 
   913     0117                     	;# 
   914     0118                     	;# 
   915     0119                     	;# 
   916     011A                     	;# 
   917     011B                     	;# 
   918     011D                     	;# 
   919     011E                     	;# 
   920     018C                     	;# 
   921     018D                     	;# 
   922     0191                     	;# 
   923     0191                     	;# 
   924     0192                     	;# 
   925     0193                     	;# 
   926     0193                     	;# 
   927     0193                     	;# 
   928     0194                     	;# 
   929     0195                     	;# 
   930     0196                     	;# 
   931     0199                     	;# 
   932     019A                     	;# 
   933     019B                     	;# 
   934     019B                     	;# 
   935     019B                     	;# 
   936     019B                     	;# 
   937     019C                     	;# 
   938     019C                     	;# 
   939     019D                     	;# 
   940     019E                     	;# 
   941     019F                     	;# 
   942     020C                     	;# 
   943     020D                     	;# 
   944     0211                     	;# 
   945     0211                     	;# 
   946     0212                     	;# 
   947     0212                     	;# 
   948     0213                     	;# 
   949     0213                     	;# 
   950     0214                     	;# 
   951     0214                     	;# 
   952     0215                     	;# 
   953     0215                     	;# 
   954     0215                     	;# 
   955     0216                     	;# 
   956     0216                     	;# 
   957     0217                     	;# 
   958     0217                     	;# 
   959     0219                     	;# 
   960     021A                     	;# 
   961     021B                     	;# 
   962     021C                     	;# 
   963     021D                     	;# 
   964     021E                     	;# 
   965     021F                     	;# 
   966     0291                     	;# 
   967     0291                     	;# 
   968     0292                     	;# 
   969     0293                     	;# 
   970     0294                     	;# 
   971     0295                     	;# 
   972     0295                     	;# 
   973     0296                     	;# 
   974     0298                     	;# 
   975     0298                     	;# 
   976     0299                     	;# 
   977     029A                     	;# 
   978     029B                     	;# 
   979     029C                     	;# 
   980     029C                     	;# 
   981     029D                     	;# 
   982     029E                     	;# 
   983     029E                     	;# 
   984     0311                     	;# 
   985     0311                     	;# 
   986     0312                     	;# 
   987     0313                     	;# 
   988     0318                     	;# 
   989     0318                     	;# 
   990     0319                     	;# 
   991     031A                     	;# 
   992     0394                     	;# 
   993     0395                     	;# 
   994     0396                     	;# 
   995     039A                     	;# 
   996     039C                     	;# 
   997     039D                     	;# 
   998     039E                     	;# 
   999     039F                     	;# 
  1000     0415                     	;# 
  1001     0416                     	;# 
  1002     0417                     	;# 
  1003     041C                     	;# 
  1004     041D                     	;# 
  1005     041E                     	;# 
  1006     0FE4                     	;# 
  1007     0FE5                     	;# 
  1008     0FE6                     	;# 
  1009     0FE7                     	;# 
  1010     0FE8                     	;# 
  1011     0FE9                     	;# 
  1012     0FEA                     	;# 
  1013     0FEB                     	;# 
  1014     0FED                     	;# 
  1015     0FEE                     	;# 
  1016     0FEF                     	;# 
  1017     0000                     	;# 
  1018     0001                     	;# 
  1019     0002                     	;# 
  1020     0003                     	;# 
  1021     0004                     	;# 
  1022     0005                     	;# 
  1023     0006                     	;# 
  1024     0007                     	;# 
  1025     0008                     	;# 
  1026     0009                     	;# 
  1027     000A                     	;# 
  1028     000B                     	;# 
  1029     000C                     	;# 
  1030     000D                     	;# 
  1031     0011                     	;# 
  1032     0012                     	;# 
  1033     0013                     	;# 
  1034     0014                     	;# 
  1035     0015                     	;# 
  1036     0016                     	;# 
  1037     0016                     	;# 
  1038     0017                     	;# 
  1039     0018                     	;# 
  1040     0019                     	;# 
  1041     001A                     	;# 
  1042     001B                     	;# 
  1043     001C                     	;# 
  1044     001E                     	;# 
  1045     001F                     	;# 
  1046     008C                     	;# 
  1047     008D                     	;# 
  1048     0091                     	;# 
  1049     0092                     	;# 
  1050     0093                     	;# 
  1051     0094                     	;# 
  1052     0095                     	;# 
  1053     0096                     	;# 
  1054     0097                     	;# 
  1055     0098                     	;# 
  1056     0099                     	;# 
  1057     009A                     	;# 
  1058     009B                     	;# 
  1059     009B                     	;# 
  1060     009C                     	;# 
  1061     009D                     	;# 
  1062     009E                     	;# 
  1063     010C                     	;# 
  1064     010D                     	;# 
  1065     0111                     	;# 
  1066     0112                     	;# 
  1067     0113                     	;# 
  1068     0114                     	;# 
  1069     0115                     	;# 
  1070     0116                     	;# 
  1071     0117                     	;# 
  1072     0118                     	;# 
  1073     0119                     	;# 
  1074     011A                     	;# 
  1075     011B                     	;# 
  1076     011D                     	;# 
  1077     011E                     	;# 
  1078     018C                     	;# 
  1079     018D                     	;# 
  1080     0191                     	;# 
  1081     0191                     	;# 
  1082     0192                     	;# 
  1083     0193                     	;# 
  1084     0193                     	;# 
  1085     0193                     	;# 
  1086     0194                     	;# 
  1087     0195                     	;# 
  1088     0196                     	;# 
  1089     0199                     	;# 
  1090     019A                     	;# 
  1091     019B                     	;# 
  1092     019B                     	;# 
  1093     019B                     	;# 
  1094     019B                     	;# 
  1095     019C                     	;# 
  1096     019C                     	;# 
  1097     019D                     	;# 
  1098     019E                     	;# 
  1099     019F                     	;# 
  1100     020C                     	;# 
  1101     020D                     	;# 
  1102     0211                     	;# 
  1103     0211                     	;# 
  1104     0212                     	;# 
  1105     0212                     	;# 
  1106     0213                     	;# 
  1107     0213                     	;# 
  1108     0214                     	;# 
  1109     0214                     	;# 
  1110     0215                     	;# 
  1111     0215                     	;# 
  1112     0215                     	;# 
  1113     0216                     	;# 
  1114     0216                     	;# 
  1115     0217                     	;# 
  1116     0217                     	;# 
  1117     0219                     	;# 
  1118     021A                     	;# 
  1119     021B                     	;# 
  1120     021C                     	;# 
  1121     021D                     	;# 
  1122     021E                     	;# 
  1123     021F                     	;# 
  1124     0291                     	;# 
  1125     0291                     	;# 
  1126     0292                     	;# 
  1127     0293                     	;# 
  1128     0294                     	;# 
  1129     0295                     	;# 
  1130     0295                     	;# 
  1131     0296                     	;# 
  1132     0298                     	;# 
  1133     0298                     	;# 
  1134     0299                     	;# 
  1135     029A                     	;# 
  1136     029B                     	;# 
  1137     029C                     	;# 
  1138     029C                     	;# 
  1139     029D                     	;# 
  1140     029E                     	;# 
  1141     029E                     	;# 
  1142     0311                     	;# 
  1143     0311                     	;# 
  1144     0312                     	;# 
  1145     0313                     	;# 
  1146     0318                     	;# 
  1147     0318                     	;# 
  1148     0319                     	;# 
  1149     031A                     	;# 
  1150     0394                     	;# 
  1151     0395                     	;# 
  1152     0396                     	;# 
  1153     039A                     	;# 
  1154     039C                     	;# 
  1155     039D                     	;# 
  1156     039E                     	;# 
  1157     039F                     	;# 
  1158     0415                     	;# 
  1159     0416                     	;# 
  1160     0417                     	;# 
  1161     041C                     	;# 
  1162     041D                     	;# 
  1163     041E                     	;# 
  1164     0FE4                     	;# 
  1165     0FE5                     	;# 
  1166     0FE6                     	;# 
  1167     0FE7                     	;# 
  1168     0FE8                     	;# 
  1169     0FE9                     	;# 
  1170     0FEA                     	;# 
  1171     0FEB                     	;# 
  1172     0FED                     	;# 
  1173     0FEE                     	;# 
  1174     0FEF                     	;# 
  1175     0000                     	;# 
  1176     0001                     	;# 
  1177     0002                     	;# 
  1178     0003                     	;# 
  1179     0004                     	;# 
  1180     0005                     	;# 
  1181     0006                     	;# 
  1182     0007                     	;# 
  1183     0008                     	;# 
  1184     0009                     	;# 
  1185     000A                     	;# 
  1186     000B                     	;# 
  1187     000C                     	;# 
  1188     000D                     	;# 
  1189     0011                     	;# 
  1190     0012                     	;# 
  1191     0013                     	;# 
  1192     0014                     	;# 
  1193     0015                     	;# 
  1194     0016                     	;# 
  1195     0016                     	;# 
  1196     0017                     	;# 
  1197     0018                     	;# 
  1198     0019                     	;# 
  1199     001A                     	;# 
  1200     001B                     	;# 
  1201     001C                     	;# 
  1202     001E                     	;# 
  1203     001F                     	;# 
  1204     008C                     	;# 
  1205     008D                     	;# 
  1206     0091                     	;# 
  1207     0092                     	;# 
  1208     0093                     	;# 
  1209     0094                     	;# 
  1210     0095                     	;# 
  1211     0096                     	;# 
  1212     0097                     	;# 
  1213     0098                     	;# 
  1214     0099                     	;# 
  1215     009A                     	;# 
  1216     009B                     	;# 
  1217     009B                     	;# 
  1218     009C                     	;# 
  1219     009D                     	;# 
  1220     009E                     	;# 
  1221     010C                     	;# 
  1222     010D                     	;# 
  1223     0111                     	;# 
  1224     0112                     	;# 
  1225     0113                     	;# 
  1226     0114                     	;# 
  1227     0115                     	;# 
  1228     0116                     	;# 
  1229     0117                     	;# 
  1230     0118                     	;# 
  1231     0119                     	;# 
  1232     011A                     	;# 
  1233     011B                     	;# 
  1234     011D                     	;# 
  1235     011E                     	;# 
  1236     018C                     	;# 
  1237     018D                     	;# 
  1238     0191                     	;# 
  1239     0191                     	;# 
  1240     0192                     	;# 
  1241     0193                     	;# 
  1242     0193                     	;# 
  1243     0193                     	;# 
  1244     0194                     	;# 
  1245     0195                     	;# 
  1246     0196                     	;# 
  1247     0199                     	;# 
  1248     019A                     	;# 
  1249     019B                     	;# 
  1250     019B                     	;# 
  1251     019B                     	;# 
  1252     019B                     	;# 
  1253     019C                     	;# 
  1254     019C                     	;# 
  1255     019D                     	;# 
  1256     019E                     	;# 
  1257     019F                     	;# 
  1258     020C                     	;# 
  1259     020D                     	;# 
  1260     0211                     	;# 
  1261     0211                     	;# 
  1262     0212                     	;# 
  1263     0212                     	;# 
  1264     0213                     	;# 
  1265     0213                     	;# 
  1266     0214                     	;# 
  1267     0214                     	;# 
  1268     0215                     	;# 
  1269     0215                     	;# 
  1270     0215                     	;# 
  1271     0216                     	;# 
  1272     0216                     	;# 
  1273     0217                     	;# 
  1274     0217                     	;# 
  1275     0219                     	;# 
  1276     021A                     	;# 
  1277     021B                     	;# 
  1278     021C                     	;# 
  1279     021D                     	;# 
  1280     021E                     	;# 
  1281     021F                     	;# 
  1282     0291                     	;# 
  1283     0291                     	;# 
  1284     0292                     	;# 
  1285     0293                     	;# 
  1286     0294                     	;# 
  1287     0295                     	;# 
  1288     0295                     	;# 
  1289     0296                     	;# 
  1290     0298                     	;# 
  1291     0298                     	;# 
  1292     0299                     	;# 
  1293     029A                     	;# 
  1294     029B                     	;# 
  1295     029C                     	;# 
  1296     029C                     	;# 
  1297     029D                     	;# 
  1298     029E                     	;# 
  1299     029E                     	;# 
  1300     0311                     	;# 
  1301     0311                     	;# 
  1302     0312                     	;# 
  1303     0313                     	;# 
  1304     0318                     	;# 
  1305     0318                     	;# 
  1306     0319                     	;# 
  1307     031A                     	;# 
  1308     0394                     	;# 
  1309     0395                     	;# 
  1310     0396                     	;# 
  1311     039A                     	;# 
  1312     039C                     	;# 
  1313     039D                     	;# 
  1314     039E                     	;# 
  1315     039F                     	;# 
  1316     0415                     	;# 
  1317     0416                     	;# 
  1318     0417                     	;# 
  1319     041C                     	;# 
  1320     041D                     	;# 
  1321     041E                     	;# 
  1322     0FE4                     	;# 
  1323     0FE5                     	;# 
  1324     0FE6                     	;# 
  1325     0FE7                     	;# 
  1326     0FE8                     	;# 
  1327     0FE9                     	;# 
  1328     0FEA                     	;# 
  1329     0FEB                     	;# 
  1330     0FED                     	;# 
  1331     0FEE                     	;# 
  1332     0FEF                     	;# 
  1333                           
  1334                           	psect	idataBANK0
  1335     0201                     __pidataBANK0:
  1336                           
  1337                           ;initializer for _kdp
  1338     0201  3401               	retlw	1
  1339     0202  3400               	retlw	0
  1340                           
  1341                           ;initializer for _kip
  1342     0203  3413               	retlw	19
  1343     0204  3400               	retlw	0
  1344                           
  1345                           ;initializer for _kpp
  1346     0205  340C               	retlw	12
  1347     0206  3400               	retlw	0
  1348                           
  1349                           ;initializer for _kif
  1350     0207  3469               	retlw	105
  1351     0208  3400               	retlw	0
  1352                           
  1353                           ;initializer for _kpf
  1354     0209  342D               	retlw	45
  1355     020A  3400               	retlw	0
  1356                           
  1357                           ;initializer for _controlchoice
  1358     020B  3401               	retlw	1
  1359     0013                     _PIR3bits	set	19
  1360     001C                     _T2CONbits	set	28
  1361     001C                     _T2CON	set	28
  1362     0011                     _PIR1bits	set	17
  1363     001A                     _TMR2	set	26
  1364     001B                     _PR2	set	27
  1365     000B                     _INTCONbits	set	11
  1366     0095                     _OPTION_REGbits	set	149
  1367     008D                     _TRISB	set	141
  1368     008C                     _TRISA	set	140
  1369     0097                     _WDTCON	set	151
  1370     0098                     _OSCTUNE	set	152
  1371     0099                     _OSCCON	set	153
  1372     011E                     _APFCON1	set	286
  1373     011D                     _APFCON0	set	285
  1374     010D                     _LATB	set	269
  1375     010C                     _LATA	set	268
  1376     0116                     _BORCON	set	278
  1377     018C                     _ANSELA	set	396
  1378     018D                     _ANSELB	set	397
  1379     020C                     _WPUA	set	524
  1380     020D                     _WPUB	set	525
  1381     029E                     _CCPTMRS0bits	set	670
  1382     0291                     _CCPR1L	set	657
  1383     0292                     _CCPR1H	set	658
  1384     0296                     _PSTR1CON	set	662
  1385     0294                     _PWM1CON	set	660
  1386     0295                     _ECCP1AS	set	661
  1387     0293                     _CCP1CON	set	659
  1388     0417                     _T4CONbits	set	1047
  1389     0417                     _T4CON	set	1047
  1390     0415                     _TMR4	set	1045
  1391     0416                     _PR4	set	1046
  1392                           
  1393                           	psect	cinit
  1394     0015                     start_initialization:	
  1395                           ; #config settings
  1396                           
  1397     0015                     __initialization:
  1398                           
  1399                           ; Initialize objects allocated to BANK0
  1400     0015  3001               	movlw	low __pidataBANK0
  1401     0016  0084               	movwf	4
  1402     0017  3082               	movlw	(high __pidataBANK0)| (0+128)
  1403     0018  0085               	movwf	5
  1404     0019  302D               	movlw	low __pdataBANK0
  1405     001A  0086               	movwf	6
  1406     001B  3000               	movlw	high __pdataBANK0
  1407     001C  0087               	movwf	7
  1408     001D  300B               	movlw	11
  1409     001E  3182  2230  3180   	fcall	init_ram
  1410                           
  1411                           ; Clear objects allocated to BANK0
  1412     0021  3020               	movlw	low __pbssBANK0
  1413     0022  0084               	movwf	4
  1414     0023  3000               	movlw	high __pbssBANK0
  1415     0024  0085               	movwf	5
  1416     0025  300D               	movlw	13
  1417     0026  3182  2236  3180   	fcall	clear_ram0
  1418     0029                     end_of_initialization:	
  1419                           ;End of C runtime variable initialization code
  1420                           
  1421     0029                     __end_of__initialization:
  1422     0029  107E               	bcf	int$flags,0	;clear compiler interrupt flag (level 1)
  1423     002A  0020               	movlb	0
  1424     002B  3181  299B         	ljmp	_main	;jump to C main() function
  1425                           
  1426                           	psect	bssBANK0
  1427     0020                     __pbssBANK0:
  1428     0020                     _output:
  1429     0020                     	ds	2
  1430     0022                     _outputsum:
  1431     0022                     	ds	2
  1432     0024                     _dinput:
  1433     0024                     	ds	2
  1434     0026                     _ballset:
  1435     0026                     	ds	2
  1436     0028                     _balldist:
  1437     0028                     	ds	2
  1438     002A                     _error:
  1439     002A                     	ds	2
  1440     002C                     _timecontrol:
  1441     002C                     	ds	1
  1442                           
  1443                           	psect	dataBANK0
  1444     002D                     __pdataBANK0:
  1445     002D                     _kdp:
  1446     002D                     	ds	2
  1447     002F                     _kip:
  1448     002F                     	ds	2
  1449     0031                     _kpp:
  1450     0031                     	ds	2
  1451     0033                     _kif:
  1452     0033                     	ds	2
  1453     0035                     _kpf:
  1454     0035                     	ds	2
  1455     0037                     _controlchoice:
  1456     0037                     	ds	1
  1457                           
  1458                           	psect	inittext
  1459     0230                     init_ram:
  1460     0230  00FE               	movwf	btemp
  1461     0231                     initloop:
  1462     0231  0012               	moviw fsr0++
  1463     0232  001E               	movwi fsr1++
  1464     0233  0BFE               	decfsz	btemp,f
  1465     0234  2A31               	goto	initloop
  1466     0235  3400               	retlw	0
  1467                           
  1468                           	psect	clrtext
  1469     0236                     clear_ram0:	
  1470                           ;	Called with FSR0 containing the base address, and
  1471                           ;	WREG with the size to clear
  1472                           
  1473     0236  0064               	clrwdt	;clear the watchdog before getting into this loop
  1474     0237                     clrloop0:
  1475     0237  0180               	clrf	0	;clear RAM location pointed to by FSR
  1476     0238  3101               	addfsr 0,1
  1477     0239  0B89               	decfsz	9,f	;Have we reached the end of clearing yet?
  1478     023A  2A37               	goto	clrloop0	;have we reached the end yet?
  1479     023B  3400               	retlw	0	;all done for this memory range, return
  1480                           
  1481                           	psect	cstackCOMMON
  1482     0070                     __pcstackCOMMON:
  1483     0070                     ?_PIN_MANAGER_Initialize:
  1484     0070                     ??_PIN_MANAGER_Initialize:	
  1485                           ; 1 bytes @ 0x0
  1486                           
  1487     0070                     ?_OSCILLATOR_Initialize:	
  1488                           ; 1 bytes @ 0x0
  1489                           
  1490     0070                     ??_OSCILLATOR_Initialize:	
  1491                           ; 1 bytes @ 0x0
  1492                           
  1493     0070                     ?_WDT_Initialize:	
  1494                           ; 1 bytes @ 0x0
  1495                           
  1496     0070                     ??_WDT_Initialize:	
  1497                           ; 1 bytes @ 0x0
  1498                           
  1499     0070                     ?_EPWM1_Initialize:	
  1500                           ; 1 bytes @ 0x0
  1501                           
  1502     0070                     ??_EPWM1_Initialize:	
  1503                           ; 1 bytes @ 0x0
  1504                           
  1505     0070                     ?_TMR4_Initialize:	
  1506                           ; 1 bytes @ 0x0
  1507                           
  1508     0070                     ??_TMR4_Initialize:	
  1509                           ; 1 bytes @ 0x0
  1510                           
  1511     0070                     ?_TMR2_Initialize:	
  1512                           ; 1 bytes @ 0x0
  1513                           
  1514     0070                     ??_TMR2_Initialize:	
  1515                           ; 1 bytes @ 0x0
  1516                           
  1517     0070                     ?_EPWM1_LoadDutyValue:	
  1518                           ; 1 bytes @ 0x0
  1519                           
  1520     0070                     ?_TMR4_LoadPeriodRegister:	
  1521                           ; 1 bytes @ 0x0
  1522                           
  1523     0070                     ??_TMR4_LoadPeriodRegister:	
  1524                           ; 1 bytes @ 0x0
  1525                           
  1526     0070                     ?_TMR4_StartTimer:	
  1527                           ; 1 bytes @ 0x0
  1528                           
  1529     0070                     ??_TMR4_StartTimer:	
  1530                           ; 1 bytes @ 0x0
  1531                           
  1532     0070                     ?_TMR4_ReadTimer:	
  1533                           ; 1 bytes @ 0x0
  1534                           
  1535     0070                     ??_TMR4_ReadTimer:	
  1536                           ; 1 bytes @ 0x0
  1537                           
  1538     0070                     ?_TMR4_StopTimer:	
  1539                           ; 1 bytes @ 0x0
  1540                           
  1541     0070                     ??_TMR4_StopTimer:	
  1542                           ; 1 bytes @ 0x0
  1543                           
  1544     0070                     ?_SYSTEM_Initialize:	
  1545                           ; 1 bytes @ 0x0
  1546                           
  1547     0070                     ??_SYSTEM_Initialize:	
  1548                           ; 1 bytes @ 0x0
  1549                           
  1550     0070                     ?_PIN_MANAGER_IOC:	
  1551                           ; 1 bytes @ 0x0
  1552                           
  1553     0070                     ??_PIN_MANAGER_IOC:	
  1554                           ; 1 bytes @ 0x0
  1555                           
  1556     0070                     ?_fluxcontrol:	
  1557                           ; 1 bytes @ 0x0
  1558                           
  1559     0070                     ?_pwmcontrol:	
  1560                           ; 1 bytes @ 0x0
  1561                           
  1562     0070                     ?_controlchoose:	
  1563                           ; 1 bytes @ 0x0
  1564                           
  1565     0070                     ?_main:	
  1566                           ; 1 bytes @ 0x0
  1567                           
  1568     0070                     ?_INTERRUPT_InterruptManager:	
  1569                           ; 1 bytes @ 0x0
  1570                           
  1571     0070                     ??_INTERRUPT_InterruptManager:	
  1572                           ; 1 bytes @ 0x0
  1573                           
  1574     0070                     ?___wmul:	
  1575                           ; 1 bytes @ 0x0
  1576                           
  1577     0070                     TMR4_ReadTimer@readVal:	
  1578                           ; 2 bytes @ 0x0
  1579                           
  1580     0070                     TMR4_LoadPeriodRegister@periodVal:	
  1581                           ; 1 bytes @ 0x0
  1582                           
  1583     0070                     EPWM1_LoadDutyValue@dutyValue:	
  1584                           ; 1 bytes @ 0x0
  1585                           
  1586     0070                     ___wmul@multiplier:	
  1587                           ; 2 bytes @ 0x0
  1588                           
  1589                           
  1590                           ; 2 bytes @ 0x0
  1591     0070                     	ds	2
  1592     0072                     ??_EPWM1_LoadDutyValue:
  1593     0072                     ___wmul@multiplicand:	
  1594                           ; 1 bytes @ 0x2
  1595                           
  1596                           
  1597                           ; 2 bytes @ 0x2
  1598     0072                     	ds	2
  1599     0074                     ??___wmul:
  1600     0074                     ___wmul@product:	
  1601                           ; 1 bytes @ 0x4
  1602                           
  1603                           
  1604                           ; 2 bytes @ 0x4
  1605     0074                     	ds	2
  1606     0076                     ?___lwdiv:
  1607     0076                     ___lwdiv@divisor:	
  1608                           ; 2 bytes @ 0x6
  1609                           
  1610                           
  1611                           ; 2 bytes @ 0x6
  1612     0076                     	ds	2
  1613     0078                     ___lwdiv@dividend:
  1614                           
  1615                           ; 2 bytes @ 0x8
  1616     0078                     	ds	2
  1617     007A                     ??___lwdiv:
  1618                           
  1619                           ; 1 bytes @ 0xA
  1620     007A                     	ds	1
  1621     007B                     ___lwdiv@quotient:
  1622                           
  1623                           ; 2 bytes @ 0xB
  1624     007B                     	ds	2
  1625     007D                     ___lwdiv@counter:
  1626                           
  1627                           ; 1 bytes @ 0xD
  1628     007D                     	ds	1
  1629     007E                     ??_controlchoose:
  1630     007E                     ??_main:	
  1631                           ; 1 bytes @ 0xE
  1632                           
  1633                           
  1634                           	psect	cstackBANK0
  1635     0038                     __pcstackBANK0:	
  1636                           ; 1 bytes @ 0xE
  1637                           
  1638     0038                     ??_fluxcontrol:
  1639     0038                     ??_pwmcontrol:	
  1640                           ; 1 bytes @ 0x0
  1641                           
  1642                           
  1643                           ; 1 bytes @ 0x0
  1644     0038                     	ds	2
  1645     003A                     _fluxcontrol$1057:
  1646     003A                     _pwmcontrol$1058:	
  1647                           ; 2 bytes @ 0x2
  1648                           
  1649                           
  1650                           ; 2 bytes @ 0x2
  1651     003A                     	ds	2
  1652                           
  1653                           	psect	maintext
  1654     019B                     __pmaintext:	
  1655 ;;
  1656 ;;Main: autosize = 0, tempsize = 0, incstack = 0, save=0
  1657 ;;
  1658 ;; *************** function _main *****************
  1659 ;; Defined at:
  1660 ;;		line 86 in file "main.c"
  1661 ;; Parameters:    Size  Location     Type
  1662 ;;		None
  1663 ;; Auto vars:     Size  Location     Type
  1664 ;;		None
  1665 ;; Return value:  Size  Location     Type
  1666 ;;                  1    wreg      void 
  1667 ;; Registers used:
  1668 ;;		wreg, status,2, status,0, pclath, cstack
  1669 ;; Tracked objects:
  1670 ;;		On entry : B1F/0
  1671 ;;		On exit  : 0/0
  1672 ;;		Unchanged: 0/0
  1673 ;; Data sizes:     COMMON   BANK0   BANK1   BANK2   BANK3   BANK4
  1674 ;;      Params:         0       0       0       0       0       0
  1675 ;;      Locals:         0       0       0       0       0       0
  1676 ;;      Temps:          0       0       0       0       0       0
  1677 ;;      Totals:         0       0       0       0       0       0
  1678 ;;Total ram usage:        0 bytes
  1679 ;; Hardware stack levels required when called: 5
  1680 ;; This function calls:
  1681 ;;		_SYSTEM_Initialize
  1682 ;;		_TMR4_ReadTimer
  1683 ;;		_TMR4_StopTimer
  1684 ;;		_controlchoose
  1685 ;; This function is called by:
  1686 ;;		Startup code after reset
  1687 ;; This function uses a non-reentrant model
  1688 ;;
  1689                           
  1690     019B                     _main:	
  1691                           ;psect for function _main
  1692                           
  1693     019B                     l1169:	
  1694                           ;incstack = 0
  1695                           ; Regs used in _main: [wreg+status,2+status,0+pclath+cstack]
  1696                           
  1697                           
  1698                           ;main.c: 89:     SYSTEM_Initialize();
  1699     019B  3181  21E0  3181   	fcall	_SYSTEM_Initialize
  1700     019E                     l1171:
  1701                           
  1702                           ;main.c: 108:     {;main.c: 110:         if((timecontrol = TMR4_ReadTimer()) >= 209){
  1703     019E  3182  2241  3181   	fcall	_TMR4_ReadTimer
  1704     01A1  0020               	movlb	0	; select bank0
  1705     01A2  00AC               	movwf	_timecontrol
  1706     01A3  30D1               	movlw	209
  1707     01A4  022C               	subwf	_timecontrol,w
  1708     01A5  1C03               	skipc
  1709     01A6  29A8               	goto	u461
  1710     01A7  29A9               	goto	u460
  1711     01A8                     u461:
  1712     01A8  299E               	goto	l1171
  1713     01A9                     u460:
  1714     01A9                     l1173:
  1715                           
  1716                           ;main.c: 111:             TMR4_StopTimer();
  1717     01A9  3182  224D  3181   	fcall	_TMR4_StopTimer
  1718     01AC                     l1175:
  1719                           
  1720                           ;main.c: 112:             controlchoose();
  1721     01AC  3182  220C  3181   	fcall	_controlchoose
  1722     01AF  299E               	goto	l1171
  1723     01B0  3180  2813         	ljmp	start
  1724     01B2                     __end_of_main:
  1725                           
  1726                           	psect	text1
  1727     020C                     __ptext1:	
  1728 ;; *************** function _controlchoose *****************
  1729 ;; Defined at:
  1730 ;;		line 76 in file "main.c"
  1731 ;; Parameters:    Size  Location     Type
  1732 ;;		None
  1733 ;; Auto vars:     Size  Location     Type
  1734 ;;		None
  1735 ;; Return value:  Size  Location     Type
  1736 ;;                  1    wreg      void 
  1737 ;; Registers used:
  1738 ;;		wreg, status,2, status,0, pclath, cstack
  1739 ;; Tracked objects:
  1740 ;;		On entry : 0/0
  1741 ;;		On exit  : 0/0
  1742 ;;		Unchanged: 0/0
  1743 ;; Data sizes:     COMMON   BANK0   BANK1   BANK2   BANK3   BANK4
  1744 ;;      Params:         0       0       0       0       0       0
  1745 ;;      Locals:         0       0       0       0       0       0
  1746 ;;      Temps:          0       0       0       0       0       0
  1747 ;;      Totals:         0       0       0       0       0       0
  1748 ;;Total ram usage:        0 bytes
  1749 ;; Hardware stack levels used: 1
  1750 ;; Hardware stack levels required when called: 4
  1751 ;; This function calls:
  1752 ;;		_TMR4_LoadPeriodRegister
  1753 ;;		_TMR4_StartTimer
  1754 ;;		_fluxcontrol
  1755 ;;		_pwmcontrol
  1756 ;; This function is called by:
  1757 ;;		_main
  1758 ;; This function uses a non-reentrant model
  1759 ;;
  1760                           
  1761     020C                     _controlchoose:	
  1762                           ;psect for function _controlchoose
  1763                           
  1764     020C                     l1157:	
  1765                           ;incstack = 0
  1766                           ; Regs used in _controlchoose: [wreg+status,2+status,0+pclath+cstack]
  1767                           
  1768                           
  1769                           ;main.c: 78:         pwmcontrol ();
  1770     020C  3180  202D  3182   	fcall	_pwmcontrol
  1771     020F                     l120:	
  1772                           ;main.c: 81:     }
  1773                           
  1774                           
  1775                           ;main.c: 82:     TMR4_LoadPeriodRegister(0);
  1776     020F  3000               	movlw	0
  1777     0210  3182  223C  3182   	fcall	_TMR4_LoadPeriodRegister
  1778     0213                     l1161:
  1779                           
  1780                           ;main.c: 83:     TMR4_StartTimer();
  1781     0213  3182  224A  3182   	fcall	_TMR4_StartTimer
  1782     0216                     l121:
  1783     0216  0008               	return
  1784     0217                     __end_of_controlchoose:
  1785                           
  1786                           	psect	text2
  1787     002D                     __ptext2:	
  1788 ;; *************** function _pwmcontrol *****************
  1789 ;; Defined at:
  1790 ;;		line 61 in file "main.c"
  1791 ;; Parameters:    Size  Location     Type
  1792 ;;		None
  1793 ;; Auto vars:     Size  Location     Type
  1794 ;;		None
  1795 ;; Return value:  Size  Location     Type
  1796 ;;                  1    wreg      void 
  1797 ;; Registers used:
  1798 ;;		wreg, status,2, status,0, pclath, cstack
  1799 ;; Tracked objects:
  1800 ;;		On entry : 0/0
  1801 ;;		On exit  : 0/0
  1802 ;;		Unchanged: 0/0
  1803 ;; Data sizes:     COMMON   BANK0   BANK1   BANK2   BANK3   BANK4
  1804 ;;      Params:         0       0       0       0       0       0
  1805 ;;      Locals:         0       2       0       0       0       0
  1806 ;;      Temps:          0       2       0       0       0       0
  1807 ;;      Totals:         0       4       0       0       0       0
  1808 ;;Total ram usage:        4 bytes
  1809 ;; Hardware stack levels used: 1
  1810 ;; Hardware stack levels required when called: 3
  1811 ;; This function calls:
  1812 ;;		_EPWM1_LoadDutyValue
  1813 ;;		___lwdiv
  1814 ;;		___wmul
  1815 ;; This function is called by:
  1816 ;;		_controlchoose
  1817 ;; This function uses a non-reentrant model
  1818 ;;
  1819                           
  1820     002D                     _pwmcontrol:	
  1821                           ;psect for function _pwmcontrol
  1822                           
  1823     002D                     l1131:	
  1824                           ;incstack = 0
  1825                           ; Regs used in _pwmcontrol: [wreg+status,2+status,0+pclath+cstack]
  1826                           
  1827                           
  1828                           ;main.c: 62:     error = ballset-balldist;
  1829     002D  0020               	movlb	0	; select bank0
  1830     002E  01AA               	clrf	_error
  1831     002F  01AB               	clrf	_error+1
  1832     0030                     l1133:
  1833                           
  1834                           ;main.c: 63:     if(error > 150 || error < 150){
  1835     0030  082B               	movf	_error+1,w
  1836     0031  3A80               	xorlw	128
  1837     0032  00B8               	movwf	??_pwmcontrol
  1838     0033  3080               	movlw	128
  1839     0034  0238               	subwf	??_pwmcontrol,w
  1840     0035  1D03               	skipz
  1841     0036  2839               	goto	u425
  1842     0037  3097               	movlw	151
  1843     0038  022A               	subwf	_error,w
  1844     0039                     u425:
  1845     0039  1803               	skipnc
  1846     003A  283C               	goto	u421
  1847     003B  283D               	goto	u420
  1848     003C                     u421:
  1849     003C  284B               	goto	l1137
  1850     003D                     u420:
  1851     003D                     l1135:
  1852     003D  0020               	movlb	0	; select bank0
  1853     003E  082B               	movf	_error+1,w
  1854     003F  3A80               	xorlw	128
  1855     0040  00B8               	movwf	??_pwmcontrol
  1856     0041  3080               	movlw	128
  1857     0042  0238               	subwf	??_pwmcontrol,w
  1858     0043  1D03               	skipz
  1859     0044  2847               	goto	u435
  1860     0045  3096               	movlw	150
  1861     0046  022A               	subwf	_error,w
  1862     0047                     u435:
  1863     0047  1803               	skipnc
  1864     0048  284A               	goto	u431
  1865     0049  284B               	goto	u430
  1866     004A                     u431:
  1867     004A  28B9               	goto	l113
  1868     004B                     u430:
  1869     004B                     l1137:
  1870     004B  0020               	movlb	0	; select bank0
  1871     004C  082C               	movf	_timecontrol,w
  1872     004D  00B8               	movwf	??_pwmcontrol
  1873     004E  01B9               	clrf	??_pwmcontrol+1
  1874     004F  0838               	movf	??_pwmcontrol,w
  1875     0050  00F0               	movwf	___wmul@multiplier
  1876     0051  0839               	movf	??_pwmcontrol+1,w
  1877     0052  00F1               	movwf	___wmul@multiplier+1
  1878     0053  082B               	movf	_error+1,w
  1879     0054  00F3               	movwf	___wmul@multiplicand+1
  1880     0055  082A               	movf	_error,w
  1881     0056  00F2               	movwf	___wmul@multiplicand
  1882     0057  3181  217C  3180   	fcall	___wmul
  1883     005A  0871               	movf	?___wmul+1,w
  1884     005B  0020               	movlb	0	; select bank0
  1885     005C  00BB               	movwf	_pwmcontrol$1058+1
  1886     005D  0870               	movf	?___wmul,w
  1887     005E  00BA               	movwf	_pwmcontrol$1058
  1888     005F  30E8               	movlw	232
  1889     0060  00F6               	movwf	___lwdiv@divisor
  1890     0061  3003               	movlw	3
  1891     0062  00F7               	movwf	___lwdiv@divisor+1
  1892     0063  083B               	movf	_pwmcontrol$1058+1,w
  1893     0064  00F1               	movwf	___wmul@multiplier+1
  1894     0065  083A               	movf	_pwmcontrol$1058,w
  1895     0066  00F0               	movwf	___wmul@multiplier
  1896     0067  3013               	movlw	19
  1897     0068  00F2               	movwf	___wmul@multiplicand
  1898     0069  3000               	movlw	0
  1899     006A  00F3               	movwf	___wmul@multiplicand+1
  1900     006B  3181  217C  3180   	fcall	___wmul
  1901     006E  0871               	movf	?___wmul+1,w
  1902     006F  00F9               	movwf	___lwdiv@dividend+1
  1903     0070  0870               	movf	?___wmul,w
  1904     0071  00F8               	movwf	___lwdiv@dividend
  1905     0072  3181  2140  3180   	fcall	___lwdiv
  1906     0075  0876               	movf	?___lwdiv,w
  1907     0076  0020               	movlb	0	; select bank0
  1908     0077  07A2               	addwf	_outputsum,f
  1909     0078  0877               	movf	?___lwdiv+1,w
  1910     0079  3DA3               	addwfc	_outputsum+1,f
  1911     007A                     l1139:
  1912                           
  1913                           ;main.c: 65:         if (outputsum > 10230) outputsum = 10230;
  1914     007A  3027               	movlw	39
  1915     007B  0223               	subwf	_outputsum+1,w
  1916     007C  30F7               	movlw	247
  1917     007D  1903               	skipnz
  1918     007E  0222               	subwf	_outputsum,w
  1919     007F  1C03               	skipc
  1920     0080  2882               	goto	u441
  1921     0081  2883               	goto	u440
  1922     0082                     u441:
  1923     0082  2887               	goto	l1143
  1924     0083                     u440:
  1925     0083                     l1141:
  1926     0083  30F6               	movlw	246
  1927     0084  00A2               	movwf	_outputsum
  1928     0085  3027               	movlw	39
  1929     0086  00A3               	movwf	_outputsum+1
  1930     0087                     l1143:
  1931                           
  1932                           ;main.c: 66:         output = ((kpp*error + outputsum)/10);
  1933     0087  300A               	movlw	10
  1934     0088  00F6               	movwf	___lwdiv@divisor
  1935     0089  3000               	movlw	0
  1936     008A  00F7               	movwf	___lwdiv@divisor+1
  1937     008B  082B               	movf	_error+1,w
  1938     008C  00F1               	movwf	___wmul@multiplier+1
  1939     008D  082A               	movf	_error,w
  1940     008E  00F0               	movwf	___wmul@multiplier
  1941     008F  300C               	movlw	12
  1942     0090  00F2               	movwf	___wmul@multiplicand
  1943     0091  3000               	movlw	0
  1944     0092  00F3               	movwf	___wmul@multiplicand+1
  1945     0093  3181  217C  3180   	fcall	___wmul
  1946     0096  0020               	movlb	0	; select bank0
  1947     0097  0822               	movf	_outputsum,w
  1948     0098  0770               	addwf	?___wmul,w
  1949     0099  00F8               	movwf	___lwdiv@dividend
  1950     009A  0823               	movf	_outputsum+1,w
  1951     009B  3D71               	addwfc	?___wmul+1,w
  1952     009C  00F9               	movwf	___lwdiv@dividend+1
  1953     009D  3181  2140  3180   	fcall	___lwdiv
  1954     00A0  0877               	movf	?___lwdiv+1,w
  1955     00A1  0020               	movlb	0	; select bank0
  1956     00A2  00A1               	movwf	_output+1
  1957     00A3  0876               	movf	?___lwdiv,w
  1958     00A4  00A0               	movwf	_output
  1959     00A5                     l1145:
  1960                           
  1961                           ;main.c: 67:         if(output > 1023) output = 1023;
  1962     00A5  3004               	movlw	4
  1963     00A6  0221               	subwf	_output+1,w
  1964     00A7  3000               	movlw	0
  1965     00A8  1903               	skipnz
  1966     00A9  0220               	subwf	_output,w
  1967     00AA  1C03               	skipc
  1968     00AB  28AD               	goto	u451
  1969     00AC  28AE               	goto	u450
  1970     00AD                     u451:
  1971     00AD  28B2               	goto	l1149
  1972     00AE                     u450:
  1973     00AE                     l1147:
  1974     00AE  30FF               	movlw	255
  1975     00AF  00A0               	movwf	_output
  1976     00B0  3003               	movlw	3
  1977     00B1  00A1               	movwf	_output+1
  1978     00B2                     l1149:
  1979                           
  1980                           ;main.c: 68:         EPWM1_LoadDutyValue(output);
  1981     00B2  0821               	movf	_output+1,w
  1982     00B3  00F1               	movwf	EPWM1_LoadDutyValue@dutyValue+1
  1983     00B4  0820               	movf	_output,w
  1984     00B5  00F0               	movwf	EPWM1_LoadDutyValue@dutyValue
  1985     00B6  3181  21B2  3180   	fcall	_EPWM1_LoadDutyValue
  1986     00B9                     l113:
  1987     00B9  0008               	return
  1988     00BA                     __end_of_pwmcontrol:
  1989                           
  1990                           	psect	text3
  1991     01B2                     __ptext3:	
  1992 ;; *************** function _EPWM1_LoadDutyValue *****************
  1993 ;; Defined at:
  1994 ;;		line 90 in file "mcc_generated_files/epwm1.c"
  1995 ;; Parameters:    Size  Location     Type
  1996 ;;  dutyValue       2    0[COMMON] unsigned short 
  1997 ;; Auto vars:     Size  Location     Type
  1998 ;;		None
  1999 ;; Return value:  Size  Location     Type
  2000 ;;                  1    wreg      void 
  2001 ;; Registers used:
  2002 ;;		wreg, status,2, status,0
  2003 ;; Tracked objects:
  2004 ;;		On entry : 0/0
  2005 ;;		On exit  : 0/0
  2006 ;;		Unchanged: 0/0
  2007 ;; Data sizes:     COMMON   BANK0   BANK1   BANK2   BANK3   BANK4
  2008 ;;      Params:         2       0       0       0       0       0
  2009 ;;      Locals:         0       0       0       0       0       0
  2010 ;;      Temps:          2       0       0       0       0       0
  2011 ;;      Totals:         4       0       0       0       0       0
  2012 ;;Total ram usage:        4 bytes
  2013 ;; Hardware stack levels used: 1
  2014 ;; Hardware stack levels required when called: 2
  2015 ;; This function calls:
  2016 ;;		Nothing
  2017 ;; This function is called by:
  2018 ;;		_pwmcontrol
  2019 ;; This function uses a non-reentrant model
  2020 ;;
  2021                           
  2022     01B2                     _EPWM1_LoadDutyValue:	
  2023                           ;psect for function _EPWM1_LoadDutyValue
  2024                           
  2025     01B2                     l1021:	
  2026                           ;incstack = 0
  2027                           ; Regs used in _EPWM1_LoadDutyValue: [wreg+status,2+status,0]
  2028                           
  2029                           
  2030                           ;mcc_generated_files/epwm1.c: 90: void EPWM1_LoadDutyValue(uint16_t dutyValue);mcc_gener
      +                          ated_files/epwm1.c: 91: {;mcc_generated_files/epwm1.c: 93:     CCPR1L = ((dutyValue & 0x
      +                          03FC)>>2);
  2031     01B2  0871               	movf	EPWM1_LoadDutyValue@dutyValue+1,w
  2032     01B3  00F3               	movwf	??_EPWM1_LoadDutyValue+1
  2033     01B4  0870               	movf	EPWM1_LoadDutyValue@dutyValue,w
  2034     01B5  00F2               	movwf	??_EPWM1_LoadDutyValue
  2035     01B6  36F3               	lsrf	??_EPWM1_LoadDutyValue+1,f
  2036     01B7  0CF2               	rrf	??_EPWM1_LoadDutyValue,f
  2037     01B8  36F3               	lsrf	??_EPWM1_LoadDutyValue+1,f
  2038     01B9  0CF2               	rrf	??_EPWM1_LoadDutyValue,f
  2039     01BA  0872               	movf	??_EPWM1_LoadDutyValue,w
  2040     01BB  0025               	movlb	5	; select bank5
  2041     01BC  0091               	movwf	17	;volatile
  2042                           
  2043                           ;mcc_generated_files/epwm1.c: 96:     CCP1CON = ((uint8_t)(CCP1CON & 0xCF) | ((dutyValue
      +                           & 0x0003)<<4));
  2044     01BD  0870               	movf	EPWM1_LoadDutyValue@dutyValue,w
  2045     01BE  3903               	andlw	3
  2046     01BF  00F2               	movwf	??_EPWM1_LoadDutyValue
  2047     01C0  3004               	movlw	4
  2048     01C1                     u265:
  2049     01C1  35F2               	lslf	??_EPWM1_LoadDutyValue,f
  2050     01C2  0B89               	decfsz	9,f
  2051     01C3  29C1               	goto	u265
  2052     01C4  0813               	movf	19,w	;volatile
  2053     01C5  39CF               	andlw	207
  2054     01C6  0472               	iorwf	??_EPWM1_LoadDutyValue,w
  2055     01C7  0093               	movwf	19	;volatile
  2056     01C8                     l214:
  2057     01C8  0008               	return
  2058     01C9                     __end_of_EPWM1_LoadDutyValue:
  2059                           
  2060                           	psect	text4
  2061     00BA                     __ptext4:	
  2062 ;; *************** function _fluxcontrol *****************
  2063 ;; Defined at:
  2064 ;;		line 51 in file "main.c"
  2065 ;; Parameters:    Size  Location     Type
  2066 ;;		None
  2067 ;; Auto vars:     Size  Location     Type
  2068 ;;		None
  2069 ;; Return value:  Size  Location     Type
  2070 ;;                  1    wreg      void 
  2071 ;; Registers used:
  2072 ;;		wreg, status,2, status,0, pclath, cstack
  2073 ;; Tracked objects:
  2074 ;;		On entry : 0/0
  2075 ;;		On exit  : 0/0
  2076 ;;		Unchanged: 0/0
  2077 ;; Data sizes:     COMMON   BANK0   BANK1   BANK2   BANK3   BANK4
  2078 ;;      Params:         0       0       0       0       0       0
  2079 ;;      Locals:         0       2       0       0       0       0
  2080 ;;      Temps:          0       2       0       0       0       0
  2081 ;;      Totals:         0       4       0       0       0       0
  2082 ;;Total ram usage:        4 bytes
  2083 ;; Hardware stack levels used: 1
  2084 ;; Hardware stack levels required when called: 3
  2085 ;; This function calls:
  2086 ;;		___lwdiv
  2087 ;;		___wmul
  2088 ;; This function is called by:
  2089 ;;		_controlchoose
  2090 ;; This function uses a non-reentrant model
  2091 ;;
  2092                           
  2093     00BA                     _fluxcontrol:	
  2094                           ;psect for function _fluxcontrol
  2095                           
  2096     00BA                     l1113:	
  2097                           ;incstack = 0
  2098                           ; Regs used in _fluxcontrol: [wreg+status,2+status,0+pclath+cstack]
  2099                           
  2100                           
  2101                           ;main.c: 52:     error = (ballset-balldist)*10;
  2102     00BA  0020               	movlb	0	; select bank0
  2103     00BB  01AA               	clrf	_error
  2104     00BC  01AB               	clrf	_error+1
  2105     00BD                     l1115:
  2106                           
  2107                           ;main.c: 53:     if(error > 150 || error < 150){
  2108     00BD  082B               	movf	_error+1,w
  2109     00BE  3A80               	xorlw	128
  2110     00BF  00B8               	movwf	??_fluxcontrol
  2111     00C0  3080               	movlw	128
  2112     00C1  0238               	subwf	??_fluxcontrol,w
  2113     00C2  1D03               	skipz
  2114     00C3  28C6               	goto	u385
  2115     00C4  3097               	movlw	151
  2116     00C5  022A               	subwf	_error,w
  2117     00C6                     u385:
  2118     00C6  1803               	skipnc
  2119     00C7  28C9               	goto	u381
  2120     00C8  28CA               	goto	u380
  2121     00C9                     u381:
  2122     00C9  28D8               	goto	l1119
  2123     00CA                     u380:
  2124     00CA                     l1117:
  2125     00CA  0020               	movlb	0	; select bank0
  2126     00CB  082B               	movf	_error+1,w
  2127     00CC  3A80               	xorlw	128
  2128     00CD  00B8               	movwf	??_fluxcontrol
  2129     00CE  3080               	movlw	128
  2130     00CF  0238               	subwf	??_fluxcontrol,w
  2131     00D0  1D03               	skipz
  2132     00D1  28D4               	goto	u395
  2133     00D2  3096               	movlw	150
  2134     00D3  022A               	subwf	_error,w
  2135     00D4                     u395:
  2136     00D4  1803               	skipnc
  2137     00D5  28D7               	goto	u391
  2138     00D6  28D8               	goto	u390
  2139     00D7                     u391:
  2140     00D7  293F               	goto	l105
  2141     00D8                     u390:
  2142     00D8                     l1119:
  2143     00D8  0020               	movlb	0	; select bank0
  2144     00D9  082C               	movf	_timecontrol,w
  2145     00DA  00B8               	movwf	??_fluxcontrol
  2146     00DB  01B9               	clrf	??_fluxcontrol+1
  2147     00DC  0838               	movf	??_fluxcontrol,w
  2148     00DD  00F0               	movwf	___wmul@multiplier
  2149     00DE  0839               	movf	??_fluxcontrol+1,w
  2150     00DF  00F1               	movwf	___wmul@multiplier+1
  2151     00E0  082B               	movf	_error+1,w
  2152     00E1  00F3               	movwf	___wmul@multiplicand+1
  2153     00E2  082A               	movf	_error,w
  2154     00E3  00F2               	movwf	___wmul@multiplicand
  2155     00E4  3181  217C  3180   	fcall	___wmul
  2156     00E7  0871               	movf	?___wmul+1,w
  2157     00E8  0020               	movlb	0	; select bank0
  2158     00E9  00BB               	movwf	_fluxcontrol$1057+1
  2159     00EA  0870               	movf	?___wmul,w
  2160     00EB  00BA               	movwf	_fluxcontrol$1057
  2161     00EC  30E8               	movlw	232
  2162     00ED  00F6               	movwf	___lwdiv@divisor
  2163     00EE  3003               	movlw	3
  2164     00EF  00F7               	movwf	___lwdiv@divisor+1
  2165     00F0  083B               	movf	_fluxcontrol$1057+1,w
  2166     00F1  00F1               	movwf	___wmul@multiplier+1
  2167     00F2  083A               	movf	_fluxcontrol$1057,w
  2168     00F3  00F0               	movwf	___wmul@multiplier
  2169     00F4  3069               	movlw	105
  2170     00F5  00F2               	movwf	___wmul@multiplicand
  2171     00F6  3000               	movlw	0
  2172     00F7  00F3               	movwf	___wmul@multiplicand+1
  2173     00F8  3181  217C  3180   	fcall	___wmul
  2174     00FB  0871               	movf	?___wmul+1,w
  2175     00FC  00F9               	movwf	___lwdiv@dividend+1
  2176     00FD  0870               	movf	?___wmul,w
  2177     00FE  00F8               	movwf	___lwdiv@dividend
  2178     00FF  3181  2140  3180   	fcall	___lwdiv
  2179     0102  0876               	movf	?___lwdiv,w
  2180     0103  0020               	movlb	0	; select bank0
  2181     0104  07A2               	addwf	_outputsum,f
  2182     0105  0877               	movf	?___lwdiv+1,w
  2183     0106  3DA3               	addwfc	_outputsum+1,f
  2184     0107                     l1121:
  2185                           
  2186                           ;main.c: 55:         if (outputsum > 45000) outputsum = 45000;
  2187     0107  30AF               	movlw	175
  2188     0108  0223               	subwf	_outputsum+1,w
  2189     0109  30C9               	movlw	201
  2190     010A  1903               	skipnz
  2191     010B  0222               	subwf	_outputsum,w
  2192     010C  1C03               	skipc
  2193     010D  290F               	goto	u401
  2194     010E  2910               	goto	u400
  2195     010F                     u401:
  2196     010F  2914               	goto	l1125
  2197     0110                     u400:
  2198     0110                     l1123:
  2199     0110  30C8               	movlw	200
  2200     0111  00A2               	movwf	_outputsum
  2201     0112  30AF               	movlw	175
  2202     0113  00A3               	movwf	_outputsum+1
  2203     0114                     l1125:
  2204                           
  2205                           ;main.c: 56:         output = ((kpf*error + outputsum)/100);
  2206     0114  3064               	movlw	100
  2207     0115  00F6               	movwf	___lwdiv@divisor
  2208     0116  3000               	movlw	0
  2209     0117  00F7               	movwf	___lwdiv@divisor+1
  2210     0118  082B               	movf	_error+1,w
  2211     0119  00F1               	movwf	___wmul@multiplier+1
  2212     011A  082A               	movf	_error,w
  2213     011B  00F0               	movwf	___wmul@multiplier
  2214     011C  302D               	movlw	45
  2215     011D  00F2               	movwf	___wmul@multiplicand
  2216     011E  3000               	movlw	0
  2217     011F  00F3               	movwf	___wmul@multiplicand+1
  2218     0120  3181  217C  3180   	fcall	___wmul
  2219     0123  0020               	movlb	0	; select bank0
  2220     0124  0822               	movf	_outputsum,w
  2221     0125  0770               	addwf	?___wmul,w
  2222     0126  00F8               	movwf	___lwdiv@dividend
  2223     0127  0823               	movf	_outputsum+1,w
  2224     0128  3D71               	addwfc	?___wmul+1,w
  2225     0129  00F9               	movwf	___lwdiv@dividend+1
  2226     012A  3181  2140  3180   	fcall	___lwdiv
  2227     012D  0877               	movf	?___lwdiv+1,w
  2228     012E  0020               	movlb	0	; select bank0
  2229     012F  00A1               	movwf	_output+1
  2230     0130  0876               	movf	?___lwdiv,w
  2231     0131  00A0               	movwf	_output
  2232     0132                     l1127:
  2233                           
  2234                           ;main.c: 57:         if (output > 450) output = 450;
  2235     0132  3001               	movlw	1
  2236     0133  0221               	subwf	_output+1,w
  2237     0134  30C3               	movlw	195
  2238     0135  1903               	skipnz
  2239     0136  0220               	subwf	_output,w
  2240     0137  1C03               	skipc
  2241     0138  293A               	goto	u411
  2242     0139  293B               	goto	u410
  2243     013A                     u411:
  2244     013A  293F               	goto	l105
  2245     013B                     u410:
  2246     013B                     l1129:
  2247     013B  30C2               	movlw	194
  2248     013C  00A0               	movwf	_output
  2249     013D  3001               	movlw	1
  2250     013E  00A1               	movwf	_output+1
  2251     013F                     l105:
  2252     013F  0008               	return
  2253     0140                     __end_of_fluxcontrol:
  2254                           
  2255                           	psect	text5
  2256     017C                     __ptext5:	
  2257 ;; *************** function ___wmul *****************
  2258 ;; Defined at:
  2259 ;;		line 15 in file "C:\Program Files\Microchip\xc8\v2.46\pic\sources\c99\common\Umul16.c"
  2260 ;; Parameters:    Size  Location     Type
  2261 ;;  multiplier      2    0[COMMON] unsigned int 
  2262 ;;  multiplicand    2    2[COMMON] unsigned int 
  2263 ;; Auto vars:     Size  Location     Type
  2264 ;;  product         2    4[COMMON] unsigned int 
  2265 ;; Return value:  Size  Location     Type
  2266 ;;                  2    0[COMMON] unsigned int 
  2267 ;; Registers used:
  2268 ;;		wreg, status,2, status,0
  2269 ;; Tracked objects:
  2270 ;;		On entry : 0/0
  2271 ;;		On exit  : 0/0
  2272 ;;		Unchanged: 0/0
  2273 ;; Data sizes:     COMMON   BANK0   BANK1   BANK2   BANK3   BANK4
  2274 ;;      Params:         4       0       0       0       0       0
  2275 ;;      Locals:         2       0       0       0       0       0
  2276 ;;      Temps:          0       0       0       0       0       0
  2277 ;;      Totals:         6       0       0       0       0       0
  2278 ;;Total ram usage:        6 bytes
  2279 ;; Hardware stack levels used: 1
  2280 ;; Hardware stack levels required when called: 2
  2281 ;; This function calls:
  2282 ;;		Nothing
  2283 ;; This function is called by:
  2284 ;;		_fluxcontrol
  2285 ;;		_pwmcontrol
  2286 ;; This function uses a non-reentrant model
  2287 ;;
  2288                           
  2289     017C                     ___wmul:	
  2290                           ;psect for function ___wmul
  2291                           
  2292     017C                     l1023:	
  2293                           ;incstack = 0
  2294                           ; Regs used in ___wmul: [wreg+status,2+status,0]
  2295                           
  2296     017C  01F4               	clrf	___wmul@product
  2297     017D  01F5               	clrf	___wmul@product+1
  2298     017E                     l1025:
  2299     017E  1C70               	btfss	___wmul@multiplier,0
  2300     017F  2981               	goto	u271
  2301     0180  2982               	goto	u270
  2302     0181                     u271:
  2303     0181  2986               	goto	l375
  2304     0182                     u270:
  2305     0182                     l1027:
  2306     0182  0872               	movf	___wmul@multiplicand,w
  2307     0183  07F4               	addwf	___wmul@product,f
  2308     0184  0873               	movf	___wmul@multiplicand+1,w
  2309     0185  3DF5               	addwfc	___wmul@product+1,f
  2310     0186                     l375:
  2311     0186  3001               	movlw	1
  2312     0187                     u285:
  2313     0187  35F2               	lslf	___wmul@multiplicand,f
  2314     0188  0DF3               	rlf	___wmul@multiplicand+1,f
  2315     0189  0B89               	decfsz	9,f
  2316     018A  2987               	goto	u285
  2317     018B                     l1029:
  2318     018B  3001               	movlw	1
  2319     018C                     u295:
  2320     018C  36F1               	lsrf	___wmul@multiplier+1,f
  2321     018D  0CF0               	rrf	___wmul@multiplier,f
  2322     018E  0B89               	decfsz	9,f
  2323     018F  298C               	goto	u295
  2324     0190                     l1031:
  2325     0190  0870               	movf	___wmul@multiplier,w
  2326     0191  0471               	iorwf	___wmul@multiplier+1,w
  2327     0192  1D03               	btfss	3,2
  2328     0193  2995               	goto	u301
  2329     0194  2996               	goto	u300
  2330     0195                     u301:
  2331     0195  297E               	goto	l1025
  2332     0196                     u300:
  2333     0196                     l1033:
  2334     0196  0875               	movf	___wmul@product+1,w
  2335     0197  00F1               	movwf	?___wmul+1
  2336     0198  0874               	movf	___wmul@product,w
  2337     0199  00F0               	movwf	?___wmul
  2338     019A                     l377:
  2339     019A  0008               	return
  2340     019B                     __end_of___wmul:
  2341                           
  2342                           	psect	text6
  2343     0140                     __ptext6:	
  2344 ;; *************** function ___lwdiv *****************
  2345 ;; Defined at:
  2346 ;;		line 5 in file "C:\Program Files\Microchip\xc8\v2.46\pic\sources\c99\common\lwdiv.c"
  2347 ;; Parameters:    Size  Location     Type
  2348 ;;  divisor         2    6[COMMON] unsigned int 
  2349 ;;  dividend        2    8[COMMON] unsigned int 
  2350 ;; Auto vars:     Size  Location     Type
  2351 ;;  quotient        2   11[COMMON] unsigned int 
  2352 ;;  counter         1   13[COMMON] unsigned char 
  2353 ;; Return value:  Size  Location     Type
  2354 ;;                  2    6[COMMON] unsigned int 
  2355 ;; Registers used:
  2356 ;;		wreg, status,2, status,0
  2357 ;; Tracked objects:
  2358 ;;		On entry : 0/0
  2359 ;;		On exit  : 0/0
  2360 ;;		Unchanged: 0/0
  2361 ;; Data sizes:     COMMON   BANK0   BANK1   BANK2   BANK3   BANK4
  2362 ;;      Params:         4       0       0       0       0       0
  2363 ;;      Locals:         3       0       0       0       0       0
  2364 ;;      Temps:          1       0       0       0       0       0
  2365 ;;      Totals:         8       0       0       0       0       0
  2366 ;;Total ram usage:        8 bytes
  2367 ;; Hardware stack levels used: 1
  2368 ;; Hardware stack levels required when called: 2
  2369 ;; This function calls:
  2370 ;;		Nothing
  2371 ;; This function is called by:
  2372 ;;		_fluxcontrol
  2373 ;;		_pwmcontrol
  2374 ;; This function uses a non-reentrant model
  2375 ;;
  2376                           
  2377     0140                     ___lwdiv:	
  2378                           ;psect for function ___lwdiv
  2379                           
  2380     0140                     l1037:	
  2381                           ;incstack = 0
  2382                           ; Regs used in ___lwdiv: [wreg+status,2+status,0]
  2383                           
  2384     0140  01FB               	clrf	___lwdiv@quotient
  2385     0141  01FC               	clrf	___lwdiv@quotient+1
  2386     0142                     l1039:
  2387     0142  0876               	movf	___lwdiv@divisor,w
  2388     0143  0477               	iorwf	___lwdiv@divisor+1,w
  2389     0144  1903               	btfsc	3,2
  2390     0145  2947               	goto	u311
  2391     0146  2948               	goto	u310
  2392     0147                     u311:
  2393     0147  2977               	goto	l1059
  2394     0148                     u310:
  2395     0148                     l1041:
  2396     0148  01FD               	clrf	___lwdiv@counter
  2397     0149  0AFD               	incf	___lwdiv@counter,f
  2398     014A  2954               	goto	l1047
  2399     014B                     l1043:
  2400     014B  3001               	movlw	1
  2401     014C                     u325:
  2402     014C  35F6               	lslf	___lwdiv@divisor,f
  2403     014D  0DF7               	rlf	___lwdiv@divisor+1,f
  2404     014E  0B89               	decfsz	9,f
  2405     014F  294C               	goto	u325
  2406     0150                     l1045:
  2407     0150  3001               	movlw	1
  2408     0151  00FA               	movwf	??___lwdiv
  2409     0152  087A               	movf	??___lwdiv,w
  2410     0153  07FD               	addwf	___lwdiv@counter,f
  2411     0154                     l1047:
  2412     0154  1FF7               	btfss	___lwdiv@divisor+1,7
  2413     0155  2957               	goto	u331
  2414     0156  2958               	goto	u330
  2415     0157                     u331:
  2416     0157  294B               	goto	l1043
  2417     0158                     u330:
  2418     0158                     l1049:
  2419     0158  3001               	movlw	1
  2420     0159                     u345:
  2421     0159  35FB               	lslf	___lwdiv@quotient,f
  2422     015A  0DFC               	rlf	___lwdiv@quotient+1,f
  2423     015B  0B89               	decfsz	9,f
  2424     015C  2959               	goto	u345
  2425     015D  0877               	movf	___lwdiv@divisor+1,w
  2426     015E  0279               	subwf	___lwdiv@dividend+1,w
  2427     015F  1D03               	skipz
  2428     0160  2963               	goto	u355
  2429     0161  0876               	movf	___lwdiv@divisor,w
  2430     0162  0278               	subwf	___lwdiv@dividend,w
  2431     0163                     u355:
  2432     0163  1C03               	skipc
  2433     0164  2966               	goto	u351
  2434     0165  2967               	goto	u350
  2435     0166                     u351:
  2436     0166  296C               	goto	l1055
  2437     0167                     u350:
  2438     0167                     l1051:
  2439     0167  0876               	movf	___lwdiv@divisor,w
  2440     0168  02F8               	subwf	___lwdiv@dividend,f
  2441     0169  0877               	movf	___lwdiv@divisor+1,w
  2442     016A  3BF9               	subwfb	___lwdiv@dividend+1,f
  2443     016B                     l1053:
  2444     016B  147B               	bsf	___lwdiv@quotient,0
  2445     016C                     l1055:
  2446     016C  3001               	movlw	1
  2447     016D                     u365:
  2448     016D  36F7               	lsrf	___lwdiv@divisor+1,f
  2449     016E  0CF6               	rrf	___lwdiv@divisor,f
  2450     016F  0B89               	decfsz	9,f
  2451     0170  296D               	goto	u365
  2452     0171                     l1057:
  2453     0171  3001               	movlw	1
  2454     0172  02FD               	subwf	___lwdiv@counter,f
  2455     0173  1D03               	btfss	3,2
  2456     0174  2976               	goto	u371
  2457     0175  2977               	goto	u370
  2458     0176                     u371:
  2459     0176  2958               	goto	l1049
  2460     0177                     u370:
  2461     0177                     l1059:
  2462     0177  087C               	movf	___lwdiv@quotient+1,w
  2463     0178  00F7               	movwf	?___lwdiv+1
  2464     0179  087B               	movf	___lwdiv@quotient,w
  2465     017A  00F6               	movwf	?___lwdiv
  2466     017B                     l655:
  2467     017B  0008               	return
  2468     017C                     __end_of___lwdiv:
  2469                           
  2470                           	psect	text7
  2471     024A                     __ptext7:	
  2472 ;; *************** function _TMR4_StartTimer *****************
  2473 ;; Defined at:
  2474 ;;		line 79 in file "mcc_generated_files/tmr4.c"
  2475 ;; Parameters:    Size  Location     Type
  2476 ;;		None
  2477 ;; Auto vars:     Size  Location     Type
  2478 ;;		None
  2479 ;; Return value:  Size  Location     Type
  2480 ;;                  1    wreg      void 
  2481 ;; Registers used:
  2482 ;;		None
  2483 ;; Tracked objects:
  2484 ;;		On entry : 0/0
  2485 ;;		On exit  : 0/0
  2486 ;;		Unchanged: 0/0
  2487 ;; Data sizes:     COMMON   BANK0   BANK1   BANK2   BANK3   BANK4
  2488 ;;      Params:         0       0       0       0       0       0
  2489 ;;      Locals:         0       0       0       0       0       0
  2490 ;;      Temps:          0       0       0       0       0       0
  2491 ;;      Totals:         0       0       0       0       0       0
  2492 ;;Total ram usage:        0 bytes
  2493 ;; Hardware stack levels used: 1
  2494 ;; Hardware stack levels required when called: 2
  2495 ;; This function calls:
  2496 ;;		Nothing
  2497 ;; This function is called by:
  2498 ;;		_controlchoose
  2499 ;; This function uses a non-reentrant model
  2500 ;;
  2501                           
  2502     024A                     _TMR4_StartTimer:	
  2503                           ;psect for function _TMR4_StartTimer
  2504                           
  2505     024A                     l1153:	
  2506                           ;incstack = 0
  2507                           ; Regs used in _TMR4_StartTimer: []
  2508                           
  2509                           
  2510                           ;mcc_generated_files/tmr4.c: 82:     T4CONbits.TMR4ON = 1;
  2511     024A  0028               	movlb	8	; select bank8
  2512     024B  1517               	bsf	23,2	;volatile
  2513     024C                     l178:
  2514     024C  0008               	return
  2515     024D                     __end_of_TMR4_StartTimer:
  2516                           
  2517                           	psect	text8
  2518     023C                     __ptext8:	
  2519 ;; *************** function _TMR4_LoadPeriodRegister *****************
  2520 ;; Defined at:
  2521 ;;		line 106 in file "mcc_generated_files/tmr4.c"
  2522 ;; Parameters:    Size  Location     Type
  2523 ;;  periodVal       1    wreg     unsigned char 
  2524 ;; Auto vars:     Size  Location     Type
  2525 ;;  periodVal       1    0[COMMON] unsigned char 
  2526 ;; Return value:  Size  Location     Type
  2527 ;;                  1    wreg      void 
  2528 ;; Registers used:
  2529 ;;		wreg
  2530 ;; Tracked objects:
  2531 ;;		On entry : 0/0
  2532 ;;		On exit  : 0/0
  2533 ;;		Unchanged: 0/0
  2534 ;; Data sizes:     COMMON   BANK0   BANK1   BANK2   BANK3   BANK4
  2535 ;;      Params:         0       0       0       0       0       0
  2536 ;;      Locals:         1       0       0       0       0       0
  2537 ;;      Temps:          0       0       0       0       0       0
  2538 ;;      Totals:         1       0       0       0       0       0
  2539 ;;Total ram usage:        1 bytes
  2540 ;; Hardware stack levels used: 1
  2541 ;; Hardware stack levels required when called: 2
  2542 ;; This function calls:
  2543 ;;		Nothing
  2544 ;; This function is called by:
  2545 ;;		_controlchoose
  2546 ;; This function uses a non-reentrant model
  2547 ;;
  2548                           
  2549     023C                     _TMR4_LoadPeriodRegister:	
  2550                           ;psect for function _TMR4_LoadPeriodRegister
  2551                           
  2552                           
  2553                           ;incstack = 0
  2554                           ; Regs used in _TMR4_LoadPeriodRegister: [wreg]
  2555                           ;TMR4_LoadPeriodRegister@periodVal stored from wreg
  2556     023C  00F0               	movwf	TMR4_LoadPeriodRegister@periodVal
  2557     023D                     l1151:
  2558                           
  2559                           ;mcc_generated_files/tmr4.c: 106: void TMR4_LoadPeriodRegister(uint8_t periodVal);mcc_ge
      +                          nerated_files/tmr4.c: 107: {;mcc_generated_files/tmr4.c: 108:    PR4 = periodVal;
  2560     023D  0870               	movf	TMR4_LoadPeriodRegister@periodVal,w
  2561     023E  0028               	movlb	8	; select bank8
  2562     023F  0096               	movwf	22	;volatile
  2563     0240                     l190:
  2564     0240  0008               	return
  2565     0241                     __end_of_TMR4_LoadPeriodRegister:
  2566                           
  2567                           	psect	text9
  2568     024D                     __ptext9:	
  2569 ;; *************** function _TMR4_StopTimer *****************
  2570 ;; Defined at:
  2571 ;;		line 85 in file "mcc_generated_files/tmr4.c"
  2572 ;; Parameters:    Size  Location     Type
  2573 ;;		None
  2574 ;; Auto vars:     Size  Location     Type
  2575 ;;		None
  2576 ;; Return value:  Size  Location     Type
  2577 ;;                  1    wreg      void 
  2578 ;; Registers used:
  2579 ;;		None
  2580 ;; Tracked objects:
  2581 ;;		On entry : 0/0
  2582 ;;		On exit  : 0/0
  2583 ;;		Unchanged: 0/0
  2584 ;; Data sizes:     COMMON   BANK0   BANK1   BANK2   BANK3   BANK4
  2585 ;;      Params:         0       0       0       0       0       0
  2586 ;;      Locals:         0       0       0       0       0       0
  2587 ;;      Temps:          0       0       0       0       0       0
  2588 ;;      Totals:         0       0       0       0       0       0
  2589 ;;Total ram usage:        0 bytes
  2590 ;; Hardware stack levels used: 1
  2591 ;; Hardware stack levels required when called: 2
  2592 ;; This function calls:
  2593 ;;		Nothing
  2594 ;; This function is called by:
  2595 ;;		_main
  2596 ;; This function uses a non-reentrant model
  2597 ;;
  2598                           
  2599     024D                     _TMR4_StopTimer:	
  2600                           ;psect for function _TMR4_StopTimer
  2601                           
  2602     024D                     l1167:	
  2603                           ;incstack = 0
  2604                           ; Regs used in _TMR4_StopTimer: []
  2605                           
  2606                           
  2607                           ;mcc_generated_files/tmr4.c: 88:     T4CONbits.TMR4ON = 0;
  2608     024D  0028               	movlb	8	; select bank8
  2609     024E  1117               	bcf	23,2	;volatile
  2610     024F                     l181:
  2611     024F  0008               	return
  2612     0250                     __end_of_TMR4_StopTimer:
  2613                           
  2614                           	psect	text10
  2615     0241                     __ptext10:	
  2616 ;; *************** function _TMR4_ReadTimer *****************
  2617 ;; Defined at:
  2618 ;;		line 91 in file "mcc_generated_files/tmr4.c"
  2619 ;; Parameters:    Size  Location     Type
  2620 ;;		None
  2621 ;; Auto vars:     Size  Location     Type
  2622 ;;  readVal         1    0[COMMON] unsigned char 
  2623 ;; Return value:  Size  Location     Type
  2624 ;;                  1    wreg      unsigned char 
  2625 ;; Registers used:
  2626 ;;		wreg
  2627 ;; Tracked objects:
  2628 ;;		On entry : 0/0
  2629 ;;		On exit  : 0/0
  2630 ;;		Unchanged: 0/0
  2631 ;; Data sizes:     COMMON   BANK0   BANK1   BANK2   BANK3   BANK4
  2632 ;;      Params:         0       0       0       0       0       0
  2633 ;;      Locals:         1       0       0       0       0       0
  2634 ;;      Temps:          0       0       0       0       0       0
  2635 ;;      Totals:         1       0       0       0       0       0
  2636 ;;Total ram usage:        1 bytes
  2637 ;; Hardware stack levels used: 1
  2638 ;; Hardware stack levels required when called: 2
  2639 ;; This function calls:
  2640 ;;		Nothing
  2641 ;; This function is called by:
  2642 ;;		_main
  2643 ;; This function uses a non-reentrant model
  2644 ;;
  2645                           
  2646     0241                     _TMR4_ReadTimer:	
  2647                           ;psect for function _TMR4_ReadTimer
  2648                           
  2649     0241                     l1163:	
  2650                           ;incstack = 0
  2651                           ; Regs used in _TMR4_ReadTimer: [wreg]
  2652                           
  2653                           
  2654                           ;mcc_generated_files/tmr4.c: 93:     uint8_t readVal;;mcc_generated_files/tmr4.c: 95:   
      +                            readVal = TMR4;
  2655     0241  0028               	movlb	8	; select bank8
  2656     0242  0815               	movf	21,w	;volatile
  2657     0243  00F0               	movwf	TMR4_ReadTimer@readVal
  2658                           
  2659                           ;mcc_generated_files/tmr4.c: 97:     return readVal;
  2660     0244  0870               	movf	TMR4_ReadTimer@readVal,w
  2661     0245                     l184:
  2662     0245  0008               	return
  2663     0246                     __end_of_TMR4_ReadTimer:
  2664                           
  2665                           	psect	text11
  2666     01E0                     __ptext11:	
  2667 ;; *************** function _SYSTEM_Initialize *****************
  2668 ;; Defined at:
  2669 ;;		line 50 in file "mcc_generated_files/mcc.c"
  2670 ;; Parameters:    Size  Location     Type
  2671 ;;		None
  2672 ;; Auto vars:     Size  Location     Type
  2673 ;;		None
  2674 ;; Return value:  Size  Location     Type
  2675 ;;                  1    wreg      void 
  2676 ;; Registers used:
  2677 ;;		wreg, status,2, status,0, pclath, cstack
  2678 ;; Tracked objects:
  2679 ;;		On entry : 0/0
  2680 ;;		On exit  : 0/0
  2681 ;;		Unchanged: 0/0
  2682 ;; Data sizes:     COMMON   BANK0   BANK1   BANK2   BANK3   BANK4
  2683 ;;      Params:         0       0       0       0       0       0
  2684 ;;      Locals:         0       0       0       0       0       0
  2685 ;;      Temps:          0       0       0       0       0       0
  2686 ;;      Totals:         0       0       0       0       0       0
  2687 ;;Total ram usage:        0 bytes
  2688 ;; Hardware stack levels used: 1
  2689 ;; Hardware stack levels required when called: 3
  2690 ;; This function calls:
  2691 ;;		_EPWM1_Initialize
  2692 ;;		_OSCILLATOR_Initialize
  2693 ;;		_PIN_MANAGER_Initialize
  2694 ;;		_TMR2_Initialize
  2695 ;;		_TMR4_Initialize
  2696 ;;		_WDT_Initialize
  2697 ;; This function is called by:
  2698 ;;		_main
  2699 ;; This function uses a non-reentrant model
  2700 ;;
  2701                           
  2702     01E0                     _SYSTEM_Initialize:	
  2703                           ;psect for function _SYSTEM_Initialize
  2704                           
  2705     01E0                     l1155:	
  2706                           ;incstack = 0
  2707                           ; Regs used in _SYSTEM_Initialize: [wreg+status,2+status,0+pclath+cstack]
  2708                           
  2709                           
  2710                           ;mcc_generated_files/mcc.c: 53:     PIN_MANAGER_Initialize();
  2711     01E0  3181  21C9  3181   	fcall	_PIN_MANAGER_Initialize
  2712                           
  2713                           ;mcc_generated_files/mcc.c: 54:     OSCILLATOR_Initialize();
  2714     01E3  3182  2229  3181   	fcall	_OSCILLATOR_Initialize
  2715                           
  2716                           ;mcc_generated_files/mcc.c: 55:     WDT_Initialize();
  2717     01E6  3182  2246  3181   	fcall	_WDT_Initialize
  2718                           
  2719                           ;mcc_generated_files/mcc.c: 56:     EPWM1_Initialize();
  2720     01E9  3181  21F3  3181   	fcall	_EPWM1_Initialize
  2721                           
  2722                           ;mcc_generated_files/mcc.c: 57:     TMR4_Initialize();
  2723     01EC  3182  2217  3181   	fcall	_TMR4_Initialize
  2724                           
  2725                           ;mcc_generated_files/mcc.c: 58:     TMR2_Initialize();
  2726     01EF  3182  2221  3181   	fcall	_TMR2_Initialize
  2727     01F2                     l23:
  2728     01F2  0008               	return
  2729     01F3                     __end_of_SYSTEM_Initialize:
  2730                           
  2731                           	psect	text12
  2732     0246                     __ptext12:	
  2733 ;; *************** function _WDT_Initialize *****************
  2734 ;; Defined at:
  2735 ;;		line 71 in file "mcc_generated_files/mcc.c"
  2736 ;; Parameters:    Size  Location     Type
  2737 ;;		None
  2738 ;; Auto vars:     Size  Location     Type
  2739 ;;		None
  2740 ;; Return value:  Size  Location     Type
  2741 ;;                  1    wreg      void 
  2742 ;; Registers used:
  2743 ;;		wreg
  2744 ;; Tracked objects:
  2745 ;;		On entry : 0/0
  2746 ;;		On exit  : 0/0
  2747 ;;		Unchanged: 0/0
  2748 ;; Data sizes:     COMMON   BANK0   BANK1   BANK2   BANK3   BANK4
  2749 ;;      Params:         0       0       0       0       0       0
  2750 ;;      Locals:         0       0       0       0       0       0
  2751 ;;      Temps:          0       0       0       0       0       0
  2752 ;;      Totals:         0       0       0       0       0       0
  2753 ;;Total ram usage:        0 bytes
  2754 ;; Hardware stack levels used: 1
  2755 ;; Hardware stack levels required when called: 2
  2756 ;; This function calls:
  2757 ;;		Nothing
  2758 ;; This function is called by:
  2759 ;;		_SYSTEM_Initialize
  2760 ;; This function uses a non-reentrant model
  2761 ;;
  2762                           
  2763     0246                     _WDT_Initialize:	
  2764                           ;psect for function _WDT_Initialize
  2765                           
  2766     0246                     l1083:	
  2767                           ;incstack = 0
  2768                           ; Regs used in _WDT_Initialize: [wreg]
  2769                           
  2770                           
  2771                           ;mcc_generated_files/mcc.c: 74:     WDTCON = 0x16;
  2772     0246  3016               	movlw	22
  2773     0247  0021               	movlb	1	; select bank1
  2774     0248  0097               	movwf	23	;volatile
  2775     0249                     l29:
  2776     0249  0008               	return
  2777     024A                     __end_of_WDT_Initialize:
  2778                           
  2779                           	psect	text13
  2780     0217                     __ptext13:	
  2781 ;; *************** function _TMR4_Initialize *****************
  2782 ;; Defined at:
  2783 ;;		line 62 in file "mcc_generated_files/tmr4.c"
  2784 ;; Parameters:    Size  Location     Type
  2785 ;;		None
  2786 ;; Auto vars:     Size  Location     Type
  2787 ;;		None
  2788 ;; Return value:  Size  Location     Type
  2789 ;;                  1    wreg      void 
  2790 ;; Registers used:
  2791 ;;		wreg, status,2
  2792 ;; Tracked objects:
  2793 ;;		On entry : 0/0
  2794 ;;		On exit  : 0/0
  2795 ;;		Unchanged: 0/0
  2796 ;; Data sizes:     COMMON   BANK0   BANK1   BANK2   BANK3   BANK4
  2797 ;;      Params:         0       0       0       0       0       0
  2798 ;;      Locals:         0       0       0       0       0       0
  2799 ;;      Temps:          0       0       0       0       0       0
  2800 ;;      Totals:         0       0       0       0       0       0
  2801 ;;Total ram usage:        0 bytes
  2802 ;; Hardware stack levels used: 1
  2803 ;; Hardware stack levels required when called: 2
  2804 ;; This function calls:
  2805 ;;		Nothing
  2806 ;; This function is called by:
  2807 ;;		_SYSTEM_Initialize
  2808 ;; This function uses a non-reentrant model
  2809 ;;
  2810                           
  2811     0217                     _TMR4_Initialize:	
  2812                           ;psect for function _TMR4_Initialize
  2813                           
  2814     0217                     l1097:	
  2815                           ;incstack = 0
  2816                           ; Regs used in _TMR4_Initialize: [wreg+status,2]
  2817                           
  2818                           
  2819                           ;mcc_generated_files/tmr4.c: 67:     PR4 = 0xFF;
  2820     0217  30FF               	movlw	255
  2821     0218  0028               	movlb	8	; select bank8
  2822     0219  0096               	movwf	22	;volatile
  2823     021A                     l1099:
  2824                           
  2825                           ;mcc_generated_files/tmr4.c: 70:     TMR4 = 0x00;
  2826     021A  0195               	clrf	21	;volatile
  2827     021B                     l1101:
  2828                           
  2829                           ;mcc_generated_files/tmr4.c: 73:     PIR3bits.TMR4IF = 0;
  2830     021B  0020               	movlb	0	; select bank0
  2831     021C  1093               	bcf	19,1	;volatile
  2832     021D                     l1103:
  2833                           
  2834                           ;mcc_generated_files/tmr4.c: 76:     T4CON = 0x2F;
  2835     021D  302F               	movlw	47
  2836     021E  0028               	movlb	8	; select bank8
  2837     021F  0097               	movwf	23	;volatile
  2838     0220                     l175:
  2839     0220  0008               	return
  2840     0221                     __end_of_TMR4_Initialize:
  2841                           
  2842                           	psect	text14
  2843     0221                     __ptext14:	
  2844 ;; *************** function _TMR2_Initialize *****************
  2845 ;; Defined at:
  2846 ;;		line 62 in file "mcc_generated_files/tmr2.c"
  2847 ;; Parameters:    Size  Location     Type
  2848 ;;		None
  2849 ;; Auto vars:     Size  Location     Type
  2850 ;;		None
  2851 ;; Return value:  Size  Location     Type
  2852 ;;                  1    wreg      void 
  2853 ;; Registers used:
  2854 ;;		wreg, status,2
  2855 ;; Tracked objects:
  2856 ;;		On entry : 0/0
  2857 ;;		On exit  : 0/0
  2858 ;;		Unchanged: 0/0
  2859 ;; Data sizes:     COMMON   BANK0   BANK1   BANK2   BANK3   BANK4
  2860 ;;      Params:         0       0       0       0       0       0
  2861 ;;      Locals:         0       0       0       0       0       0
  2862 ;;      Temps:          0       0       0       0       0       0
  2863 ;;      Totals:         0       0       0       0       0       0
  2864 ;;Total ram usage:        0 bytes
  2865 ;; Hardware stack levels used: 1
  2866 ;; Hardware stack levels required when called: 2
  2867 ;; This function calls:
  2868 ;;		Nothing
  2869 ;; This function is called by:
  2870 ;;		_SYSTEM_Initialize
  2871 ;; This function uses a non-reentrant model
  2872 ;;
  2873                           
  2874     0221                     _TMR2_Initialize:	
  2875                           ;psect for function _TMR2_Initialize
  2876                           
  2877     0221                     l1105:	
  2878                           ;incstack = 0
  2879                           ; Regs used in _TMR2_Initialize: [wreg+status,2]
  2880                           
  2881                           
  2882                           ;mcc_generated_files/tmr2.c: 67:     PR2 = 0xFF;
  2883     0221  30FF               	movlw	255
  2884     0222  0020               	movlb	0	; select bank0
  2885     0223  009B               	movwf	27	;volatile
  2886     0224                     l1107:
  2887                           
  2888                           ;mcc_generated_files/tmr2.c: 70:     TMR2 = 0x00;
  2889     0224  019A               	clrf	26	;volatile
  2890     0225                     l1109:
  2891                           
  2892                           ;mcc_generated_files/tmr2.c: 73:     PIR1bits.TMR2IF = 0;
  2893     0225  1091               	bcf	17,1	;volatile
  2894     0226                     l1111:
  2895                           
  2896                           ;mcc_generated_files/tmr2.c: 76:     T2CON = 0x04;
  2897     0226  3004               	movlw	4
  2898     0227  009C               	movwf	28	;volatile
  2899     0228                     l143:
  2900     0228  0008               	return
  2901     0229                     __end_of_TMR2_Initialize:
  2902                           
  2903                           	psect	text15
  2904     01C9                     __ptext15:	
  2905 ;; *************** function _PIN_MANAGER_Initialize *****************
  2906 ;; Defined at:
  2907 ;;		line 55 in file "mcc_generated_files/pin_manager.c"
  2908 ;; Parameters:    Size  Location     Type
  2909 ;;		None
  2910 ;; Auto vars:     Size  Location     Type
  2911 ;;		None
  2912 ;; Return value:  Size  Location     Type
  2913 ;;                  1    wreg      void 
  2914 ;; Registers used:
  2915 ;;		wreg, status,2
  2916 ;; Tracked objects:
  2917 ;;		On entry : 0/0
  2918 ;;		On exit  : 0/0
  2919 ;;		Unchanged: 0/0
  2920 ;; Data sizes:     COMMON   BANK0   BANK1   BANK2   BANK3   BANK4
  2921 ;;      Params:         0       0       0       0       0       0
  2922 ;;      Locals:         0       0       0       0       0       0
  2923 ;;      Temps:          0       0       0       0       0       0
  2924 ;;      Totals:         0       0       0       0       0       0
  2925 ;;Total ram usage:        0 bytes
  2926 ;; Hardware stack levels used: 1
  2927 ;; Hardware stack levels required when called: 2
  2928 ;; This function calls:
  2929 ;;		Nothing
  2930 ;; This function is called by:
  2931 ;;		_SYSTEM_Initialize
  2932 ;; This function uses a non-reentrant model
  2933 ;;
  2934                           
  2935     01C9                     _PIN_MANAGER_Initialize:	
  2936                           ;psect for function _PIN_MANAGER_Initialize
  2937                           
  2938     01C9                     l1063:	
  2939                           ;incstack = 0
  2940                           ; Regs used in _PIN_MANAGER_Initialize: [wreg+status,2]
  2941                           
  2942                           
  2943                           ;mcc_generated_files/pin_manager.c: 60:     LATA = 0x00;
  2944     01C9  0022               	movlb	2	; select bank2
  2945     01CA  018C               	clrf	12	;volatile
  2946                           
  2947                           ;mcc_generated_files/pin_manager.c: 61:     LATB = 0x00;
  2948     01CB  018D               	clrf	13	;volatile
  2949     01CC                     l1065:
  2950                           
  2951                           ;mcc_generated_files/pin_manager.c: 66:     TRISA = 0xFF;
  2952     01CC  30FF               	movlw	255
  2953     01CD  0021               	movlb	1	; select bank1
  2954     01CE  008C               	movwf	12	;volatile
  2955     01CF                     l1067:
  2956                           
  2957                           ;mcc_generated_files/pin_manager.c: 67:     TRISB = 0xF7;
  2958     01CF  30F7               	movlw	247
  2959     01D0  008D               	movwf	13	;volatile
  2960     01D1                     l1069:
  2961                           
  2962                           ;mcc_generated_files/pin_manager.c: 72:     ANSELB = 0xF6;
  2963     01D1  30F6               	movlw	246
  2964     01D2  0023               	movlb	3	; select bank3
  2965     01D3  008D               	movwf	13	;volatile
  2966     01D4                     l1071:
  2967                           
  2968                           ;mcc_generated_files/pin_manager.c: 73:     ANSELA = 0x1F;
  2969     01D4  301F               	movlw	31
  2970     01D5  008C               	movwf	12	;volatile
  2971                           
  2972                           ;mcc_generated_files/pin_manager.c: 78:     WPUB = 0x00;
  2973     01D6  0024               	movlb	4	; select bank4
  2974     01D7  018D               	clrf	13	;volatile
  2975                           
  2976                           ;mcc_generated_files/pin_manager.c: 79:     WPUA = 0x00;
  2977     01D8  018C               	clrf	12	;volatile
  2978     01D9                     l1073:
  2979                           
  2980                           ;mcc_generated_files/pin_manager.c: 80:     OPTION_REGbits.nWPUEN = 1;
  2981     01D9  0021               	movlb	1	; select bank1
  2982     01DA  1795               	bsf	21,7	;volatile
  2983                           
  2984                           ;mcc_generated_files/pin_manager.c: 86:     APFCON0 = 0x00;
  2985     01DB  0022               	movlb	2	; select bank2
  2986     01DC  019D               	clrf	29	;volatile
  2987                           
  2988                           ;mcc_generated_files/pin_manager.c: 87:     APFCON1 = 0x00;
  2989     01DD  019E               	clrf	30	;volatile
  2990     01DE                     l1075:
  2991                           
  2992                           ;mcc_generated_files/pin_manager.c: 94:     INTCONbits.IOCIE = 1;
  2993     01DE  158B               	bsf	11,3	;volatile
  2994     01DF                     l56:
  2995     01DF  0008               	return
  2996     01E0                     __end_of_PIN_MANAGER_Initialize:
  2997                           
  2998                           	psect	text16
  2999     0229                     __ptext16:	
  3000 ;; *************** function _OSCILLATOR_Initialize *****************
  3001 ;; Defined at:
  3002 ;;		line 61 in file "mcc_generated_files/mcc.c"
  3003 ;; Parameters:    Size  Location     Type
  3004 ;;		None
  3005 ;; Auto vars:     Size  Location     Type
  3006 ;;		None
  3007 ;; Return value:  Size  Location     Type
  3008 ;;                  1    wreg      void 
  3009 ;; Registers used:
  3010 ;;		wreg, status,2
  3011 ;; Tracked objects:
  3012 ;;		On entry : 0/0
  3013 ;;		On exit  : 0/0
  3014 ;;		Unchanged: 0/0
  3015 ;; Data sizes:     COMMON   BANK0   BANK1   BANK2   BANK3   BANK4
  3016 ;;      Params:         0       0       0       0       0       0
  3017 ;;      Locals:         0       0       0       0       0       0
  3018 ;;      Temps:          0       0       0       0       0       0
  3019 ;;      Totals:         0       0       0       0       0       0
  3020 ;;Total ram usage:        0 bytes
  3021 ;; Hardware stack levels used: 1
  3022 ;; Hardware stack levels required when called: 2
  3023 ;; This function calls:
  3024 ;;		Nothing
  3025 ;; This function is called by:
  3026 ;;		_SYSTEM_Initialize
  3027 ;; This function uses a non-reentrant model
  3028 ;;
  3029                           
  3030     0229                     _OSCILLATOR_Initialize:	
  3031                           ;psect for function _OSCILLATOR_Initialize
  3032                           
  3033     0229                     l1077:	
  3034                           ;incstack = 0
  3035                           ; Regs used in _OSCILLATOR_Initialize: [wreg+status,2]
  3036                           
  3037                           
  3038                           ;mcc_generated_files/mcc.c: 64:     OSCCON = 0x78;
  3039     0229  3078               	movlw	120
  3040     022A  0021               	movlb	1	; select bank1
  3041     022B  0099               	movwf	25	;volatile
  3042     022C                     l1079:
  3043                           
  3044                           ;mcc_generated_files/mcc.c: 66:     OSCTUNE = 0x00;
  3045     022C  0198               	clrf	24	;volatile
  3046     022D                     l1081:
  3047                           
  3048                           ;mcc_generated_files/mcc.c: 68:     BORCON = 0x00;
  3049     022D  0022               	movlb	2	; select bank2
  3050     022E  0196               	clrf	22	;volatile
  3051     022F                     l26:
  3052     022F  0008               	return
  3053     0230                     __end_of_OSCILLATOR_Initialize:
  3054                           
  3055                           	psect	text17
  3056     01F3                     __ptext17:	
  3057 ;; *************** function _EPWM1_Initialize *****************
  3058 ;; Defined at:
  3059 ;;		line 64 in file "mcc_generated_files/epwm1.c"
  3060 ;; Parameters:    Size  Location     Type
  3061 ;;		None
  3062 ;; Auto vars:     Size  Location     Type
  3063 ;;		None
  3064 ;; Return value:  Size  Location     Type
  3065 ;;                  1    wreg      void 
  3066 ;; Registers used:
  3067 ;;		wreg, status,2, status,0
  3068 ;; Tracked objects:
  3069 ;;		On entry : 0/0
  3070 ;;		On exit  : 0/0
  3071 ;;		Unchanged: 0/0
  3072 ;; Data sizes:     COMMON   BANK0   BANK1   BANK2   BANK3   BANK4
  3073 ;;      Params:         0       0       0       0       0       0
  3074 ;;      Locals:         0       0       0       0       0       0
  3075 ;;      Temps:          0       0       0       0       0       0
  3076 ;;      Totals:         0       0       0       0       0       0
  3077 ;;Total ram usage:        0 bytes
  3078 ;; Hardware stack levels used: 1
  3079 ;; Hardware stack levels required when called: 2
  3080 ;; This function calls:
  3081 ;;		Nothing
  3082 ;; This function is called by:
  3083 ;;		_SYSTEM_Initialize
  3084 ;; This function uses a non-reentrant model
  3085 ;;
  3086                           
  3087     01F3                     _EPWM1_Initialize:	
  3088                           ;psect for function _EPWM1_Initialize
  3089                           
  3090     01F3                     l1085:	
  3091                           ;incstack = 0
  3092                           ; Regs used in _EPWM1_Initialize: [wreg+status,2+status,0]
  3093                           
  3094                           
  3095                           ;mcc_generated_files/epwm1.c: 69:  CCP1CON = 0x3C;
  3096     01F3  303C               	movlw	60
  3097     01F4  0025               	movlb	5	; select bank5
  3098     01F5  0093               	movwf	19	;volatile
  3099     01F6                     l1087:
  3100                           
  3101                           ;mcc_generated_files/epwm1.c: 72:  ECCP1AS = 0x00;
  3102     01F6  0195               	clrf	21	;volatile
  3103     01F7                     l1089:
  3104                           
  3105                           ;mcc_generated_files/epwm1.c: 75:  PWM1CON = 0x80;
  3106     01F7  3080               	movlw	128
  3107     01F8  0094               	movwf	20	;volatile
  3108     01F9                     l1091:
  3109                           
  3110                           ;mcc_generated_files/epwm1.c: 78:  PSTR1CON = 0x01;
  3111     01F9  3001               	movlw	1
  3112     01FA  0096               	movwf	22	;volatile
  3113     01FB                     l1093:
  3114                           
  3115                           ;mcc_generated_files/epwm1.c: 81:  CCPR1H = 0x00;
  3116     01FB  0192               	clrf	18	;volatile
  3117                           
  3118                           ;mcc_generated_files/epwm1.c: 84:  CCPR1L = 0x7F;
  3119     01FC  307F               	movlw	127
  3120     01FD  0091               	movwf	17	;volatile
  3121     01FE                     l1095:
  3122                           
  3123                           ;mcc_generated_files/epwm1.c: 87:  CCPTMRS0bits.C1TSEL = 0x0;
  3124     01FE  30FC               	movlw	-4
  3125     01FF  059E               	andwf	30,f	;volatile
  3126     0200                     l211:
  3127     0200  0008               	return
  3128     0201                     __end_of_EPWM1_Initialize:
  3129                           
  3130                           	psect	intentry
  3131     0004                     __pintentry:	
  3132 ;; *************** function _INTERRUPT_InterruptManager *****************
  3133 ;; Defined at:
  3134 ;;		line 52 in file "mcc_generated_files/interrupt_manager.c"
  3135 ;; Parameters:    Size  Location     Type
  3136 ;;		None
  3137 ;; Auto vars:     Size  Location     Type
  3138 ;;		None
  3139 ;; Return value:  Size  Location     Type
  3140 ;;                  1    wreg      void 
  3141 ;; Registers used:
  3142 ;;		status,2, status,0, pclath, cstack
  3143 ;; Tracked objects:
  3144 ;;		On entry : 0/0
  3145 ;;		On exit  : 0/0
  3146 ;;		Unchanged: 0/0
  3147 ;; Data sizes:     COMMON   BANK0   BANK1   BANK2   BANK3   BANK4
  3148 ;;      Params:         0       0       0       0       0       0
  3149 ;;      Locals:         0       0       0       0       0       0
  3150 ;;      Temps:          0       0       0       0       0       0
  3151 ;;      Totals:         0       0       0       0       0       0
  3152 ;;Total ram usage:        0 bytes
  3153 ;; Hardware stack levels used: 1
  3154 ;; Hardware stack levels required when called: 1
  3155 ;; This function calls:
  3156 ;;		_PIN_MANAGER_IOC
  3157 ;; This function is called by:
  3158 ;;		Interrupt level 1
  3159 ;; This function uses a non-reentrant model
  3160 ;;
  3161                           
  3162     0004                     _INTERRUPT_InterruptManager:
  3163                           
  3164                           ;incstack = 0
  3165     0004  147E               	bsf	int$flags,0	;set compiler interrupt flag (level 1)
  3166                           
  3167                           ; Regs used in _INTERRUPT_InterruptManager: [status,2+status,0+pclath+cstack]
  3168     0005  3180               	pagesel	$
  3169     0006                     i1l1015:
  3170                           
  3171                           ;mcc_generated_files/interrupt_manager.c: 55:     if(INTCONbits.IOCIE == 1 && INTCONbits
      +                          .IOCIF == 1)
  3172     0006  1D8B               	btfss	11,3	;volatile
  3173     0007  2809               	goto	u24_21
  3174     0008  280A               	goto	u24_20
  3175     0009                     u24_21:
  3176     0009  2811               	goto	i1l225
  3177     000A                     u24_20:
  3178     000A                     i1l1017:
  3179     000A  1C0B               	btfss	11,0	;volatile
  3180     000B  280D               	goto	u25_21
  3181     000C  280E               	goto	u25_20
  3182     000D                     u25_21:
  3183     000D  2811               	goto	i1l225
  3184     000E                     u25_20:
  3185     000E                     i1l1019:
  3186                           
  3187                           ;mcc_generated_files/interrupt_manager.c: 56:     {;mcc_generated_files/interrupt_manage
      +                          r.c: 57:         PIN_MANAGER_IOC();
  3188     000E  3182  2250  3180   	fcall	_PIN_MANAGER_IOC
  3189     0011                     i1l225:	
  3190                           ;mcc_generated_files/interrupt_manager.c: 58:     }
  3191                           
  3192     0011  107E               	bcf	int$flags,0	;clear compiler interrupt flag (level 1)
  3193     0012  0009               	retfie
  3194     0013                     __end_of_INTERRUPT_InterruptManager:
  3195                           
  3196                           	psect	text19
  3197     0250                     __ptext19:	
  3198 ;; *************** function _PIN_MANAGER_IOC *****************
  3199 ;; Defined at:
  3200 ;;		line 98 in file "mcc_generated_files/pin_manager.c"
  3201 ;; Parameters:    Size  Location     Type
  3202 ;;		None
  3203 ;; Auto vars:     Size  Location     Type
  3204 ;;		None
  3205 ;; Return value:  Size  Location     Type
  3206 ;;                  1    wreg      void 
  3207 ;; Registers used:
  3208 ;;		None
  3209 ;; Tracked objects:
  3210 ;;		On entry : 0/0
  3211 ;;		On exit  : 0/0
  3212 ;;		Unchanged: 0/0
  3213 ;; Data sizes:     COMMON   BANK0   BANK1   BANK2   BANK3   BANK4
  3214 ;;      Params:         0       0       0       0       0       0
  3215 ;;      Locals:         0       0       0       0       0       0
  3216 ;;      Temps:          0       0       0       0       0       0
  3217 ;;      Totals:         0       0       0       0       0       0
  3218 ;;Total ram usage:        0 bytes
  3219 ;; Hardware stack levels used: 1
  3220 ;; This function calls:
  3221 ;;		Nothing
  3222 ;; This function is called by:
  3223 ;;		_INTERRUPT_InterruptManager
  3224 ;; This function uses a non-reentrant model
  3225 ;;
  3226                           
  3227     0250                     _PIN_MANAGER_IOC:	
  3228                           ;psect for function _PIN_MANAGER_IOC
  3229                           
  3230     0250                     i1l59:	
  3231                           ;incstack = 0
  3232                           ; Regs used in _PIN_MANAGER_IOC: []
  3233                           
  3234     0250  0008               	return
  3235     0251                     __end_of_PIN_MANAGER_IOC:
  3236     007E                     btemp	set	126	;btemp
  3237     007E                     int$flags	set	126
  3238     007E                     wtemp0	set	126
  3239                           
  3240                           	psect	config
  3241                           
  3242                           ;Config register CONFIG1 @ 0x8007
  3243                           ;	Oscillator Selection
  3244                           ;	FOSC = INTOSC, INTOSC oscillator: I/O function on CLKIN pin
  3245                           ;	Watchdog Timer Enable
  3246                           ;	WDTE = OFF, WDT disabled
  3247                           ;	Power-up Timer Enable
  3248                           ;	PWRTE = OFF, PWRT disabled
  3249                           ;	MCLR Pin Function Select
  3250                           ;	MCLRE = ON, MCLR/VPP pin function is MCLR
  3251                           ;	Flash Program Memory Code Protection
  3252                           ;	CP = OFF, Program memory code protection is disabled
  3253                           ;	Data Memory Code Protection
  3254                           ;	CPD = OFF, Data memory code protection is disabled
  3255                           ;	Brown-out Reset Enable
  3256                           ;	BOREN = ON, Brown-out Reset enabled
  3257                           ;	Clock Out Enable
  3258                           ;	CLKOUTEN = OFF, CLKOUT function is disabled. I/O or oscillator function on the CLKOUT 
      +                          pin
  3259                           ;	Internal/External Switchover
  3260                           ;	IESO = ON, Internal/External Switchover mode is enabled
  3261                           ;	Fail-Safe Clock Monitor Enable
  3262                           ;	FCMEN = ON, Fail-Safe Clock Monitor is enabled
  3263     8007                     	org	32775
  3264     8007  3FE4               	dw	16356
  3265                           
  3266                           ;Config register CONFIG2 @ 0x8008
  3267                           ;	Flash Memory Self-Write Protection
  3268                           ;	WRT = OFF, Write protection off
  3269                           ;	PLL Enable
  3270                           ;	PLLEN = OFF, 4x PLL disabled
  3271                           ;	Stack Overflow/Underflow Reset Enable
  3272                           ;	STVREN = ON, Stack Overflow or Underflow will cause a Reset
  3273                           ;	Brown-out Reset Voltage Selection
  3274                           ;	BORV = LO, Brown-out Reset Voltage (Vbor), low trip point selected.
  3275                           ;	In-Circuit Debugger Mode
  3276                           ;	DEBUG = 0x1, unprogrammed default
  3277                           ;	Low-Voltage Programming Enable
  3278                           ;	LVP = ON, Low-voltage programming enabled
  3279     8008                     	org	32776
  3280     8008  3EFF               	dw	16127

Data Sizes:
    Strings     0
    Constant    0
    Data        11
    BSS         13
    Persistent  32
    Stack       0

Auto Spaces:
    Space          Size  Autos    Used
    COMMON           14     14      14
    BANK0            80      4      28
    BANK1            80      0       0
    BANK2            80      0       0
    BANK3            80      0       0
    BANK4            48      0       0

Pointer List with Targets:

    None.

Critical Paths under _main in COMMON

    _pwmcontrol->___lwdiv
    _fluxcontrol->___lwdiv
    ___lwdiv->___wmul

Critical Paths under _INTERRUPT_InterruptManager in COMMON

    None.

Critical Paths under _main in BANK0

    _controlchoose->_fluxcontrol
    _controlchoose->_pwmcontrol

Critical Paths under _INTERRUPT_InterruptManager in BANK0

    None.

Critical Paths under _main in BANK1

    None.

Critical Paths under _INTERRUPT_InterruptManager in BANK1

    None.

Critical Paths under _main in BANK2

    None.

Critical Paths under _INTERRUPT_InterruptManager in BANK2

    None.

Critical Paths under _main in BANK3

    None.

Critical Paths under _INTERRUPT_InterruptManager in BANK3

    None.

Critical Paths under _main in BANK4

    None.

Critical Paths under _INTERRUPT_InterruptManager in BANK4

    None.

Call Graph Tables:

 ---------------------------------------------------------------------------------
 (Depth) Function   	        Calls       Base Space   Used Autos Params    Refs
 ---------------------------------------------------------------------------------
 (0) _main                                                 0     0      0    4031
                  _SYSTEM_Initialize
                     _TMR4_ReadTimer
                     _TMR4_StopTimer
                      _controlchoose
 ---------------------------------------------------------------------------------
 (1) _controlchoose                                        0     0      0    4008
            _TMR4_LoadPeriodRegister
                    _TMR4_StartTimer
                        _fluxcontrol
                         _pwmcontrol
 ---------------------------------------------------------------------------------
 (2) _pwmcontrol                                           4     4      0    2053
                                              0 BANK0      4     4      0
                _EPWM1_LoadDutyValue
                            ___lwdiv
                             ___wmul
 ---------------------------------------------------------------------------------
 (3) _EPWM1_LoadDutyValue                                  4     2      2     120
                                              0 COMMON     4     2      2
 ---------------------------------------------------------------------------------
 (2) _fluxcontrol                                          4     4      0    1933
                                              0 BANK0      4     4      0
                            ___lwdiv
                             ___wmul
 ---------------------------------------------------------------------------------
 (3) ___wmul                                               6     2      4    1140
                                              0 COMMON     6     2      4
 ---------------------------------------------------------------------------------
 (3) ___lwdiv                                              8     4      4     770
                                              6 COMMON     8     4      4
                             ___wmul (ARG)
 ---------------------------------------------------------------------------------
 (2) _TMR4_StartTimer                                      0     0      0       0
 ---------------------------------------------------------------------------------
 (2) _TMR4_LoadPeriodRegister                              1     1      0      22
                                              0 COMMON     1     1      0
 ---------------------------------------------------------------------------------
 (1) _TMR4_StopTimer                                       0     0      0       0
 ---------------------------------------------------------------------------------
 (1) _TMR4_ReadTimer                                       1     1      0      23
                                              0 COMMON     1     1      0
 ---------------------------------------------------------------------------------
 (1) _SYSTEM_Initialize                                    0     0      0       0
                   _EPWM1_Initialize
              _OSCILLATOR_Initialize
             _PIN_MANAGER_Initialize
                    _TMR2_Initialize
                    _TMR4_Initialize
                     _WDT_Initialize
 ---------------------------------------------------------------------------------
 (2) _WDT_Initialize                                       0     0      0       0
 ---------------------------------------------------------------------------------
 (2) _TMR4_Initialize                                      0     0      0       0
 ---------------------------------------------------------------------------------
 (2) _TMR2_Initialize                                      0     0      0       0
 ---------------------------------------------------------------------------------
 (2) _PIN_MANAGER_Initialize                               0     0      0       0
 ---------------------------------------------------------------------------------
 (2) _OSCILLATOR_Initialize                                0     0      0       0
 ---------------------------------------------------------------------------------
 (2) _EPWM1_Initialize                                     0     0      0       0
 ---------------------------------------------------------------------------------
 Estimated maximum stack depth 3
 ---------------------------------------------------------------------------------
 (Depth) Function   	        Calls       Base Space   Used Autos Params    Refs
 ---------------------------------------------------------------------------------
 (4) _INTERRUPT_InterruptManager                           0     0      0       0
                    _PIN_MANAGER_IOC
 ---------------------------------------------------------------------------------
 (5) _PIN_MANAGER_IOC                                      0     0      0       0
 ---------------------------------------------------------------------------------
 Estimated maximum stack depth 5
 ---------------------------------------------------------------------------------

 Call Graph Graphs:

 _main (ROOT)
   _SYSTEM_Initialize
     _EPWM1_Initialize
     _OSCILLATOR_Initialize
     _PIN_MANAGER_Initialize
     _TMR2_Initialize
     _TMR4_Initialize
     _WDT_Initialize
   _TMR4_ReadTimer
   _TMR4_StopTimer
   _controlchoose
     _TMR4_LoadPeriodRegister
     _TMR4_StartTimer
     _fluxcontrol
       ___lwdiv
         ___wmul (ARG)
       ___wmul
     _pwmcontrol
       _EPWM1_LoadDutyValue
       ___lwdiv
       ___wmul

 _INTERRUPT_InterruptManager (ROOT)
   _PIN_MANAGER_IOC

 Address spaces:
Name               Size   Autos  Total    Cost      Usage
BIGRAM             170      0       0       0        0.0%
EEDATA             100      0       0       0        0.0%
NULL                 0      0       0       0        0.0%
CODE                 0      0       0       0        0.0%
BITCOMMON            E      0       0       1        0.0%
BITSFR0              0      0       0       1        0.0%
SFR0                 0      0       0       1        0.0%
COMMON               E      E       E       2      100.0%
BITSFR1              0      0       0       2        0.0%
SFR1                 0      0       0       2        0.0%
BITSFR2              0      0       0       3        0.0%
SFR2                 0      0       0       3        0.0%
STACK                0      0       0       3        0.0%
BITSFR3              0      0       0       4        0.0%
SFR3                 0      0       0       4        0.0%
ABS                  0      0      2A       4        0.0%
BITBANK0            50      0       0       5        0.0%
BITSFR4              0      0       0       5        0.0%
SFR4                 0      0       0       5        0.0%
BANK0               50      4      1C       6       35.0%
BITSFR5              0      0       0       6        0.0%
SFR5                 0      0       0       6        0.0%
BITBANK1            50      0       0       7        0.0%
BITSFR6              0      0       0       7        0.0%
SFR6                 0      0       0       7        0.0%
BANK1               50      0       0       8        0.0%
BITSFR7              0      0       0       8        0.0%
SFR7                 0      0       0       8        0.0%
BITBANK2            50      0       0       9        0.0%
BITSFR8              0      0       0       9        0.0%
SFR8                 0      0       0       9        0.0%
BANK2               50      0       0      10        0.0%
BITSFR9              0      0       0      10        0.0%
SFR9                 0      0       0      10        0.0%
BITBANK3            50      0       0      11        0.0%
BITSFR10             0      0       0      11        0.0%
SFR10                0      0       0      11        0.0%
BANK3               50      0       0      12        0.0%
BITSFR11             0      0       0      12        0.0%
SFR11                0      0       0      12        0.0%
BITBANK4            30      0       0      13        0.0%
BITSFR12             0      0       0      13        0.0%
SFR12                0      0       0      13        0.0%
BANK4               30      0       0      14        0.0%
BITSFR13             0      0       0      14        0.0%
SFR13                0      0       0      14        0.0%
BITSFR14             0      0       0      15        0.0%
SFR14                0      0       0      15        0.0%
DATA                 0      0      2A      15        0.0%
BITSFR15             0      0       0      16        0.0%
SFR15                0      0       0      16        0.0%
BITSFR16             0      0       0      17        0.0%
SFR16                0      0       0      17        0.0%
BITSFR17             0      0       0      18        0.0%
SFR17                0      0       0      18        0.0%
BITSFR18             0      0       0      19        0.0%
SFR18                0      0       0      19        0.0%
BITSFR19             0      0       0      20        0.0%
SFR19                0      0       0      20        0.0%
BITSFR20             0      0       0      21        0.0%
SFR20                0      0       0      21        0.0%
BITSFR21             0      0       0      22        0.0%
SFR21                0      0       0      22        0.0%
BITSFR22             0      0       0      23        0.0%
SFR22                0      0       0      23        0.0%
BITSFR23             0      0       0      24        0.0%
SFR23                0      0       0      24        0.0%
BITSFR24             0      0       0      25        0.0%
SFR24                0      0       0      25        0.0%
BITSFR25             0      0       0      26        0.0%
SFR25                0      0       0      26        0.0%
BITSFR26             0      0       0      27        0.0%
SFR26                0      0       0      27        0.0%
BITSFR27             0      0       0      28        0.0%
SFR27                0      0       0      28        0.0%
BITSFR28             0      0       0      29        0.0%
SFR28                0      0       0      29        0.0%
BITSFR29             0      0       0      30        0.0%
SFR29                0      0       0      30        0.0%
BITSFR30             0      0       0      31        0.0%
SFR30                0      0       0      31        0.0%
BITSFR31             0      0       0      32        0.0%
SFR31                0      0       0      32        0.0%


Microchip Technology PIC Macro Assembler V2.46 build 20240104201356 
Symbol Table                                                                                   Tue Aug 27 11:41:02 2024

                                l23 01F2                                  l26 022F  
                                l29 0249                                  l56 01DF  
               ___wmul@multiplicand 0072                                 l120 020F  
                               l105 013F                                 l113 00B9  
                               l121 0216                                 l211 0200  
                               l214 01C8                                 l143 0228  
                               l181 024F                                 l190 0240  
                               l175 0220                                 l184 0245  
                               l178 024C                                 l375 0186  
                               l377 019A                                 l655 017B  
                               u300 0196                                 u301 0195  
                               u310 0148                                 u311 0147  
                               u400 0110                                 u401 010F  
                               u330 0158                                 u410 013B  
                               u331 0157                                 u411 013A  
                               u420 003D                                 u325 014C  
                               u421 003C                                 u350 0167  
                               u270 0182                                 u430 004B  
                               _PR2 001B                                 u351 0166  
                               u271 0181                                 u431 004A  
                               u440 0083                                 _PR4 0416  
                               u345 0159                                 u265 01C1  
                               u441 0082                                 u425 0039  
                               u370 0177                                 u450 00AE  
                               u371 0176                                 u355 0163  
                               u451 00AD                                 u435 0047  
                               u380 00CA                                 u460 01A9  
                               u365 016D                                 u285 0187  
                               u381 00C9                                 u461 01A8  
                               u390 00D8                                 u295 018C  
                               u391 00D7                                 u385 00C6  
                               u395 00D4                                 _kif 0033  
                               _kdp 002D                                 _kip 002F  
                               _kpf 0035                                 _kpp 0031  
                   _TMR2_Initialize 0221                                 wreg 0009  
                              l1101 021B                                l1021 01B2  
                              l1111 0226                                l1103 021D  
                              l1031 0190                                l1023 017C  
                              l1105 0221                                l1041 0148  
                              l1033 0196                                l1025 017E  
                              l1121 0107                                l1113 00BA  
                              l1107 0224                                l1051 0167  
                              l1043 014B                                l1027 0182  
                              l1123 0110                                l1115 00BD  
                              l1131 002D                                l1109 0225  
                              l1053 016B                                l1045 0150  
                              l1037 0140                                l1029 018B  
                              l1125 0114                                l1117 00CA  
                              l1141 0083                                l1133 0030  
                              l1071 01D4                                l1063 01C9  
                              l1151 023D                                l1055 016C  
                              l1047 0154                                l1039 0142  
                              l1127 0132                                l1119 00D8  
                              l1143 0087                                l1135 003D  
                              l1081 022D                                l1073 01D9  
                              l1065 01CC                                l1153 024A  
                              l1057 0171                                l1049 0158  
                              l1129 013B                                l1145 00A5  
                              l1137 004B                                l1161 0213  
                              l1091 01F9                                l1075 01DE  
                              l1067 01CF                                l1083 0246  
                              l1155 01E0                                l1163 0241  
                              l1059 0177                                l1147 00AE  
                              l1139 007A                                l1171 019E  
                              l1093 01FB                                l1085 01F3  
                              l1077 0229                                l1069 01D1  
                              l1149 00B2                                l1157 020C  
                              l1173 01A9                                l1095 01FE  
                              l1087 01F6                                l1079 022C  
                              l1167 024D                                l1175 01AC  
                              l1089 01F7                                l1097 0217  
                              l1169 019B                                l1099 021A  
                              _LATA 010C                                _LATB 010D  
                              i1l59 0250                                _TMR2 001A  
                              _TMR4 0415                                _WPUA 020C  
                              _WPUB 020D                                _main 019B  
                              fsr0h 0005                                fsr1h 0007  
                              indf0 0000                                fsr0l 0004  
                              fsr1l 0006                                btemp 007E  
                              start 0013               ??_EPWM1_LoadDutyValue 0072  
     __end_of_OSCILLATOR_Initialize 0230                               ?_main 0070  
                             _T2CON 001C                               _T4CON 0417  
                   __end_of___lwdiv 017C                               i1l225 0011  
                             u24_20 000A                               u24_21 0009  
                             u25_20 000E                               u25_21 000D  
                             _TRISA 008C                               _TRISB 008D  
                      ?_fluxcontrol 0070                     _TMR4_Initialize 0217  
           __end_of_PIN_MANAGER_IOC 0251                      _WDT_Initialize 0246  
                             _error 002A                       _controlchoice 0037  
                     _controlchoose 020C                               status 0003  
                             wtemp0 007E                     __initialization 0015  
                      __end_of_main 01B2             __end_of_TMR2_Initialize 0229  
       ?_INTERRUPT_InterruptManager 0070                              ??_main 007E  
          ?_TMR4_LoadPeriodRegister 0070              __end_of_WDT_Initialize 024A  
                    ?_controlchoose 0070                              _CCPR1H 0292  
                            _CCPR1L 0291                              _ANSELA 018C  
                            _ANSELB 018D                              _BORCON 0116  
                            i1l1015 0006                              i1l1017 000A  
                            i1l1019 000E                              _OSCCON 0099  
                            _WDTCON 0097                     _TMR4_StartTimer 024A  
                      _CCPTMRS0bits 029E                              ___wmul 017C  
                         ??___lwdiv 007A                              _dinput 0024  
           __end_of_TMR4_Initialize 0221                              _output 0020  
                   ?_WDT_Initialize 0070                    ?_PIN_MANAGER_IOC 0070  
                 _SYSTEM_Initialize 01E0             __end_of__initialization 0029  
                ?_SYSTEM_Initialize 0070                   ?_EPWM1_Initialize 0070  
                    __pcstackCOMMON 0070                        __pidataBANK0 0201  
               ??_SYSTEM_Initialize 0070                  ??_EPWM1_Initialize 0070  
                  ?_TMR2_Initialize 0070     __end_of_TMR4_LoadPeriodRegister 0241  
                    _OPTION_REGbits 0095                     ??_controlchoose 007E  
           __end_of_TMR4_StartTimer 024D           __end_of_SYSTEM_Initialize 01F3  
                        __pbssBANK0 0020                          __pmaintext 019B  
                           ?___wmul 0070                          __pintentry 0004  
                           _CCP1CON 0293                             _ECCP1AS 0295  
                  ?_TMR4_Initialize 0070                             _APFCON0 011D  
                           _APFCON1 011E                             _OSCTUNE 0098  
                           _PWM1CON 0294                     _pwmcontrol$1058 003A  
       __end_of_EPWM1_LoadDutyValue 01C9                             ___lwdiv 0140  
                           _ballset 0026                             __ptext1 020C  
                           __ptext2 002D                             __ptext3 01B2  
                           __ptext4 00BA                             __ptext5 017C  
                           __ptext6 0140                             __ptext7 024A  
                           __ptext8 023C                             __ptext9 024D  
             _OSCILLATOR_Initialize 0229                           _T2CONbits 001C  
                         _T4CONbits 0417            ??_PIN_MANAGER_Initialize 0070  
                           clrloop0 0237                    ?_TMR4_StartTimer 0070  
              end_of_initialization 0029                             init_ram 0230  
                           initloop 0231                    _fluxcontrol$1057 003A  
                  ??_WDT_Initialize 0070                          _pwmcontrol 002D  
                    _TMR4_ReadTimer 0241                      __end_of___wmul 019B  
            ?_OSCILLATOR_Initialize 0070                 start_initialization 0015  
      EPWM1_LoadDutyValue@dutyValue 0070                      _TMR4_StopTimer 024D  
            __end_of_TMR4_ReadTimer 0246                            ??___wmul 0074  
                       __pdataBANK0 002D                       ??_fluxcontrol 0038  
                         ___latbits 0001                       __pcstackBANK0 0038  
             __end_of_controlchoose 0217                         ?_pwmcontrol 0070  
           _TMR4_LoadPeriodRegister 023C              __end_of_TMR4_StopTimer 0250  
                  ___lwdiv@dividend 0078              _PIN_MANAGER_Initialize 01C9  
                   ?_TMR4_ReadTimer 0070                            ?___lwdiv 0076  
      ??_INTERRUPT_InterruptManager 0070                    ___lwdiv@quotient 007B  
               __end_of_fluxcontrol 0140                      ___wmul@product 0074  
                         clear_ram0 0236                     ?_TMR4_StopTimer 0070  
                          _PIR1bits 0011                            _PIR3bits 0013  
                          _PSTR1CON 0296                   ??_PIN_MANAGER_IOC 0070  
                 ___wmul@multiplier 0070                    _EPWM1_Initialize 01F3  
                         _outputsum 0022           ??_TMR4_LoadPeriodRegister 0070  
                 ??_TMR2_Initialize 0070               TMR4_ReadTimer@readVal 0070  
           ??_OSCILLATOR_Initialize 0070                            _balldist 0028  
                       _fluxcontrol 00BA                     ___lwdiv@divisor 0076  
                   ___lwdiv@counter 007D                            __ptext10 0241  
                          __ptext11 01E0                            __ptext12 0246  
                          __ptext13 0217                            __ptext14 0221  
                          __ptext15 01C9                            __ptext16 0229  
                          __ptext17 01F3                            __ptext19 0250  
                 ??_TMR4_Initialize 0070                            int$flags 007E  
__end_of_INTERRUPT_InterruptManager 0013          _INTERRUPT_InterruptManager 0004  
                        _INTCONbits 000B                        ??_pwmcontrol 0038  
                          intlevel1 0000             ?_PIN_MANAGER_Initialize 0070  
                  ??_TMR4_ReadTimer 0070                   ??_TMR4_StartTimer 0070  
                __end_of_pwmcontrol 00BA                         _timecontrol 002C  
               _EPWM1_LoadDutyValue 01B2      __end_of_PIN_MANAGER_Initialize 01E0  
                  ??_TMR4_StopTimer 0070                     _PIN_MANAGER_IOC 0250  
          __end_of_EPWM1_Initialize 0201                ?_EPWM1_LoadDutyValue 0070  
  TMR4_LoadPeriodRegister@periodVal 0070  
