Microchip MPLAB XC8 Compiler V2.46

Linker command line:

-W-3 \
  --edf=C:\Program Files\Microchip\xc8\v2.46\pic\dat\20240104201356_en.msgs \
  -cn -h+dist/Config_2/debug\projeto_final_EE_gp1.debug.sym \
  --cmf=dist/Config_2/debug\projeto_final_EE_gp1.debug.cmf -z -Q16F1827 \
  -oC:\Users\rodri\AppData\Local\Temp\xcAs19d8.\driver_tmp_3.o \
  --defsym=__MPLAB_BUILD=1 --fixupoverflow=error \
  -Mdist/Config_2/debug/projeto_final_EE_gp1.debug.map \
  --md=C:\Users\rodri\AppData\Local\Temp\xcAs19d8.\driver_tmp_0.dat -E1 \
  -ver=XC8 Compiler --acfsm=1493 -ACODE=00h-07FFhx2 -ASTRCODE=00h-0FFFh \
  -ASTRING=00h-0FFhx16 -ACONST=00h-0FFhx16 -AENTRY=00h-0FFhx16 \
  -ACOMMON=070h-07Fh -ABANK0=020h-06Fh -ABANK1=0A0h-0EFh \
  -ABANK2=0120h-016Fh -ABANK3=01A0h-01EFh -ABANK4=0220h-024Fh \
  -ABIGRAM=02000h-0216Fh \
  -ARAM=020h-06Fh,0A0h-0EFh,0120h-016Fh,01A0h-01EFh,0220h-024Fh \
  -AABS1=020h-07Fh,0A0h-0EFh,0120h-016Fh,01A0h-01EFh,0220h-024Fh \
  -ASFR0=00h-01Fh -ASFR1=080h-09Fh -ASFR2=0100h-011Fh -ASFR3=0180h-019Fh \
  -ASFR4=0200h-021Fh -ASFR5=0280h-02EFh -ASFR6=0300h-036Fh \
  -ASFR7=0380h-03EFh -ASFR8=0400h-046Fh -ASFR9=0480h-04EFh \
  -ASFR10=0500h-056Fh -ASFR11=0580h-05EFh -ASFR12=0600h-066Fh \
  -ASFR13=0680h-06EFh -ASFR14=0700h-076Fh -ASFR15=0780h-07EFh \
  -ASFR16=0800h-086Fh -ASFR17=0880h-08EFh -ASFR18=0900h-096Fh \
  -ASFR19=0980h-09EFh -ASFR20=0A00h-0A6Fh -ASFR21=0A80h-0AEFh \
  -ASFR22=0B00h-0B6Fh -ASFR23=0B80h-0BEFh -ASFR24=0C00h-0C6Fh \
  -ASFR25=0C80h-0CEFh -ASFR26=0D00h-0D6Fh -ASFR27=0D80h-0DEFh \
  -ASFR28=0E00h-0E6Fh -ASFR29=0E80h-0EEFh -ASFR30=0F00h-0F6Fh \
  -ASFR31=0F80h-0FEFh -ACONFIG=08007h-08008h -DCONFIG=2 \
  -AIDLOC=08000h-08003h -DIDLOC=2 -AEEDATA=00h-0FFh/0F000h \
  -peeprom_data=EEDATA -DEEDATA=2 -DCODE=2 -DSTRCODE=2 -DSTRING=2 -DCONST=2 \
  -DENTRY=2 -preset_vec=00h,intentry=04h,sivt,init,end_init -ppowerup=CODE \
  -pcinit=CODE -pfunctab=ENTRY -k \
  C:\Users\rodri\AppData\Local\Temp\xcAs19d8.\driver_tmp_15.o \
  dist/Config_2/debug\projeto_final_EE_gp1.debug.o 

Object code version is 3.11

Machine type is 16F1827



                Name                               Link     Load   Length Selector   Space Scale
C:\Users\rodri\AppData\Local\Temp\xcAs19d8.\driver_tmp_15.o
                end_init                             19       19        2        8       0
                reset_vec                             0        0        2        0       0
                config                             8007     8007        2        0       4
dist/Config_2/debug\projeto_final_EE_gp1.debug.o
                cinit                                1B       1B       30        8       0
                intentry                              4        4       15        8       0
                config                             8007     8007        2        0       4
                text54                              B75      B75        1     16EA       0
                text53                              C9E      C9E       18     193C       0
                text52                              C41      C41        F     1882       0
                text51                              BBD      BBD        8     177A       0
                text50                              D04      D04       1F     1A08       0
                text49                               4B       4B      1FC        8       0
                text48                              739      739       93      A2C       0
                text47                              E60      E60       61     1CC0       0
                text46                              D97      D97       34     1B2E       0
                text45                              5E2      5E2       BA      A2C       0
                text44                                2        2        1        0       0
                text43                              C1C      C1C        B     1838       0
                text41                              CB6      CB6       19     196C       0
                text40                              C27      C27        C     184E       0
                text39                              B88      B88        5     1710       0
                text38                              BC5      BC5        8     178A       0
                text37                              B92      B92        6     1724       0
                text36                              B8D      B8D        5     171A       0
                text35                              C33      C33        E     1866       0
                text34                              BCD      BCD        8     179A       0
                text33                              BD5      BD5        8     17AA       0
                text32                              BDD      BDD        8     17BA       0
                text31                              D23      D23       24     1A46       0
                text30                              B7C      B7C        4     16F8       0
                text29                              BB6      BB6        7     176C       0
                text28                              C87      C87       17     190E       0
                text27                              BFE      BFE        A     17FC       0
                text26                              BE5      BE5        8     17CA       0
                text25                              CCF      CCF       1A     199E       0
                text24                              BED      BED        8     17DA       0
                text23                              C08      C08        A     1810       0
                text22                              C12      C12        A     1824       0
                text21                              B80      B80        4     1700       0
                text20                              D6D      D6D       2A     1ADA       0
                text19                              B98      B98        6     1730       0
                text18                              B76      B76        3     16EC       0
                text17                              B9E      B9E        6     173C       0
                text16                              BA4      BA4        6     1748       0
                text15                              CE9      CE9       1B     19D2       0
                text14                              516      516       CC      A2C       0
                text13                              B79      B79        3     16F2       0
                text12                              D47      D47       26     1A8E       0
                text11                              37C      37C       CE        8       0
                text10                              F22      F22       6A     1E44       0
                text9                               7CC      7CC       34      A2C       0
                text8                               247      247      135        8       0
                text7                               C5F      C5F       12     18BE       0
                text6                               BF5      BF5        9     17EA       0
                text5                               EC1      EC1       61     1D82       0
                text4                               F8C      F8C       74     1F18       0
                text3                               E06      E06       5A     1C0C       0
                text2                               C71      C71       16     18E2       0
                text1                               DCB      DCB       3B     1B96       0
                maintext                            69C      69C       9D      A2C       0
                cstackBANK0                          20       20       33       20       1
                cstackCOMMON                         70       70        E       70       1
                cstackBANK1                          CC       CC       22       A0       1
                clrtext                             BAA      BAA        6     1754       0
                inittext                            BB0      BB0        6     1760       0
                dataBANK2                           120      120        F      120       1
                dataBANK1                            EE       EE        1       A0       1
                bssBANK1                             A0       A0       2C       A0       1
                dataBANK0                            6A       6A        4       20       1
                bssBANK0                             53       53       17       20       1
                nvBANK2                             12F      12F        6      120       1
                nvBANK0                              6E       6E        2       20       1
                stringtext1                         44A      44A       CC      894       0
                idataBANK2                          C50      C50        F     18A0       0
                idataBANK1                            3        3        1        6       0
                idataBANK0                          B84      B84        4     1708       0

TOTAL           Name                               Link     Load   Length     Space
        CLASS   CODE           
                end_init                             19       19        2         0
                cinit                                1B       1B       30         0
                intentry                              4        4       15         0
                reset_vec                             0        0        2         0
                text54                              B75      B75        1         0
                text53                              C9E      C9E       18         0
                text52                              C41      C41        F         0
                text51                              BBD      BBD        8         0
                text50                              D04      D04       1F         0
                text49                               4B       4B      1FC         0
                text48                              739      739       93         0
                text47                              E60      E60       61         0
                text46                              D97      D97       34         0
                text45                              5E2      5E2       BA         0
                text44                                2        2        1         0
                text43                              C1C      C1C        B         0
                text41                              CB6      CB6       19         0
                text40                              C27      C27        C         0
                text39                              B88      B88        5         0
                text38                              BC5      BC5        8         0
                text37                              B92      B92        6         0
                text36                              B8D      B8D        5         0
                text35                              C33      C33        E         0
                text34                              BCD      BCD        8         0
                text33                              BD5      BD5        8         0
                text32                              BDD      BDD        8         0
                text31                              D23      D23       24         0
                text30                              B7C      B7C        4         0
                text29                              BB6      BB6        7         0
                text28                              C87      C87       17         0
                text27                              BFE      BFE        A         0
                text26                              BE5      BE5        8         0
                text25                              CCF      CCF       1A         0
                text24                              BED      BED        8         0
                text23                              C08      C08        A         0
                text22                              C12      C12        A         0
                text21                              B80      B80        4         0
                text20                              D6D      D6D       2A         0
                text19                              B98      B98        6         0
                text18                              B76      B76        3         0
                text17                              B9E      B9E        6         0
                text16                              BA4      BA4        6         0
                text15                              CE9      CE9       1B         0
                text14                              516      516       CC         0
                text13                              B79      B79        3         0
                text12                              D47      D47       26         0
                text11                              37C      37C       CE         0
                text10                              F22      F22       6A         0
                text9                               7CC      7CC       34         0
                text8                               247      247      135         0
                text7                               C5F      C5F       12         0
                text6                               BF5      BF5        9         0
                text5                               EC1      EC1       61         0
                text4                               F8C      F8C       74         0
                text3                               E06      E06       5A         0
                text2                               C71      C71       16         0
                text1                               DCB      DCB       3B         0
                maintext                            69C      69C       9D         0
                clrtext                             BAA      BAA        6         0
                inittext                            BB0      BB0        6         0
                idataBANK2                          C50      C50        F         0
                idataBANK1                            3        3        1         0
                idataBANK0                          B84      B84        4         0

        CLASS   STRCODE        
                stringtext1                         44A      44A       CC         0

        CLASS   STRING         

        CLASS   CONST          

        CLASS   ENTRY          

        CLASS   COMMON         
                cstackCOMMON                         70       70        E         1

        CLASS   BANK0          
                cstackBANK0                          20       20       33         1
                dataBANK0                            6A       6A        4         1
                bssBANK0                             53       53       17         1
                nvBANK0                              6E       6E        2         1

        CLASS   BANK1          
                cstackBANK1                          CC       CC       22         1
                dataBANK1                            EE       EE        1         1
                bssBANK1                             A0       A0       2C         1

        CLASS   BANK2          
                dataBANK2                           120      120        F         1
                nvBANK2                             12F      12F        6         1

        CLASS   BANK3          

        CLASS   BANK4          

        CLASS   BIGRAM         

        CLASS   RAM            

        CLASS   ABS1           
                abs_s1                               7E       7E        2         1

        CLASS   SFR0           

        CLASS   SFR1           

        CLASS   SFR2           

        CLASS   SFR3           

        CLASS   SFR4           

        CLASS   SFR5           

        CLASS   SFR6           

        CLASS   SFR7           

        CLASS   SFR8           

        CLASS   SFR9           

        CLASS   SFR10          

        CLASS   SFR11          

        CLASS   SFR12          

        CLASS   SFR13          

        CLASS   SFR14          

        CLASS   SFR15          

        CLASS   SFR16          

        CLASS   SFR17          

        CLASS   SFR18          

        CLASS   SFR19          

        CLASS   SFR20          

        CLASS   SFR21          

        CLASS   SFR22          

        CLASS   SFR23          

        CLASS   SFR24          

        CLASS   SFR25          

        CLASS   SFR26          

        CLASS   SFR27          

        CLASS   SFR28          

        CLASS   SFR29          

        CLASS   SFR30          

        CLASS   SFR31          

        CLASS   CONFIG         
                config                             8007     8007        2         4

        CLASS   IDLOC          

        CLASS   EEDATA         

        CLASS   BANK31         

        CLASS   BANK30         

        CLASS   BANK29         

        CLASS   BANK28         

        CLASS   BANK27         

        CLASS   BANK26         

        CLASS   BANK25         

        CLASS   BANK24         

        CLASS   BANK23         

        CLASS   BANK22         

        CLASS   BANK21         

        CLASS   BANK20         

        CLASS   BANK19         

        CLASS   BANK18         

        CLASS   BANK17         

        CLASS   BANK16         

        CLASS   BANK15         

        CLASS   BANK14         

        CLASS   BANK13         

        CLASS   BANK12         

        CLASS   BANK11         

        CLASS   BANK10         

        CLASS   BANK9          

        CLASS   BANK8          

        CLASS   BANK7          

        CLASS   BANK6          

        CLASS   BANK5          

        CLASS   HEAP           

        CLASS   STACK          



SEGMENTS        Name                           Load    Length   Top    Selector   Space  Class     Delta

                reset_vec                      000000  000003  000003         0       0  CODE        2
                idataBANK1                     000003  000001  000004         6       0  CODE        2
                intentry                       000004  000446  00044A         8       0  CODE        2
                cstackBANK0                    000020  000050  000070        20       1  BANK0       1
                cstackCOMMON                   000070  00000E  00007E        70       1  COMMON      1
                bssBANK1                       0000A0  00004F  0000EF        A0       1  BANK1       1
                dataBANK2                      000120  000015  000135       120       1  BANK2       1
                stringtext1                    00044A  0000CC  000516       894       0  STRCODE     2
                text14                         000516  0002EA  000800       A2C       0  CODE        2
                text54                         000B75  000001  000B76      16EA       0  CODE        2
                text18                         000B76  000003  000B79      16EC       0  CODE        2
                text13                         000B79  000003  000B7C      16F2       0  CODE        2
                text30                         000B7C  000004  000B80      16F8       0  CODE        2
                text21                         000B80  000004  000B84      1700       0  CODE        2
                idataBANK0                     000B84  000004  000B88      1708       0  CODE        2
                text39                         000B88  000005  000B8D      1710       0  CODE        2
                text36                         000B8D  000005  000B92      171A       0  CODE        2
                text37                         000B92  000006  000B98      1724       0  CODE        2
                text19                         000B98  000006  000B9E      1730       0  CODE        2
                text17                         000B9E  000006  000BA4      173C       0  CODE        2
                text16                         000BA4  000006  000BAA      1748       0  CODE        2
                clrtext                        000BAA  000006  000BB0      1754       0  CODE        2
                inittext                       000BB0  000006  000BB6      1760       0  CODE        2
                text29                         000BB6  000007  000BBD      176C       0  CODE        2
                text51                         000BBD  000008  000BC5      177A       0  CODE        2
                text38                         000BC5  000008  000BCD      178A       0  CODE        2
                text34                         000BCD  000008  000BD5      179A       0  CODE        2
                text33                         000BD5  000008  000BDD      17AA       0  CODE        2
                text32                         000BDD  000008  000BE5      17BA       0  CODE        2
                text26                         000BE5  000008  000BED      17CA       0  CODE        2
                text24                         000BED  000008  000BF5      17DA       0  CODE        2
                text6                          000BF5  000009  000BFE      17EA       0  CODE        2
                text27                         000BFE  00000A  000C08      17FC       0  CODE        2
                text23                         000C08  00000A  000C12      1810       0  CODE        2
                text22                         000C12  00000A  000C1C      1824       0  CODE        2
                text43                         000C1C  00000B  000C27      1838       0  CODE        2
                text40                         000C27  00000C  000C33      184E       0  CODE        2
                text35                         000C33  00000E  000C41      1866       0  CODE        2
                text52                         000C41  00000F  000C50      1882       0  CODE        2
                idataBANK2                     000C50  00000F  000C5F      18A0       0  CODE        2
                text7                          000C5F  000012  000C71      18BE       0  CODE        2
                text2                          000C71  000016  000C87      18E2       0  CODE        2
                text28                         000C87  000017  000C9E      190E       0  CODE        2
                text53                         000C9E  000018  000CB6      193C       0  CODE        2
                text41                         000CB6  000019  000CCF      196C       0  CODE        2
                text25                         000CCF  00001A  000CE9      199E       0  CODE        2
                text15                         000CE9  00001B  000D04      19D2       0  CODE        2
                text50                         000D04  00001F  000D23      1A08       0  CODE        2
                text31                         000D23  000024  000D47      1A46       0  CODE        2
                text12                         000D47  000026  000D6D      1A8E       0  CODE        2
                text20                         000D6D  00002A  000D97      1ADA       0  CODE        2
                text46                         000D97  000034  000DCB      1B2E       0  CODE        2
                text1                          000DCB  00003B  000E06      1B96       0  CODE        2
                text3                          000E06  00005A  000E60      1C0C       0  CODE        2
                text47                         000E60  000061  000EC1      1CC0       0  CODE        2
                text5                          000EC1  000061  000F22      1D82       0  CODE        2
                text10                         000F22  00006A  000F8C      1E44       0  CODE        2
                text4                          000F8C  000074  001000      1F18       0  CODE        2


UNUSED ADDRESS RANGES

        Name                Unused          Largest block    Delta
        BANK1            000EF-000EF               1           1
        BANK2            00135-0016F              3B           1
        BANK3            001A0-001EF              50           1
        BANK4            00220-0024F              30           1
        BIGRAM           02000-0216F             170           1
        CODE             00800-00B74             375           2
        CONST            00800-00B74             100           2
        EEDATA           0F000-0F0FF             100           2
        ENTRY            00800-00B74             100           2
        IDLOC            08000-08003               4           2
        RAM              000EF-000EF               1           1
                         00135-0016F              3B
                         001A0-001EF              50
                         00220-0024F              30
        SFR0             00000-0001F              20           1
        SFR1             00080-0009F              20           1
        SFR10            00500-0056F              70           1
        SFR11            00580-005EF              70           1
        SFR12            00600-0066F              70           1
        SFR13            00680-006EF              70           1
        SFR14            00700-0076F              70           1
        SFR15            00780-007EF              70           1
        SFR16            00800-0086F              70           1
        SFR17            00880-008EF              70           1
        SFR18            00900-0096F              70           1
        SFR19            00980-009EF              70           1
        SFR2             00100-0011F              20           1
        SFR20            00A00-00A6F              70           1
        SFR21            00A80-00AEF              70           1
        SFR22            00B00-00B6F              70           1
        SFR23            00B80-00BEF              70           1
        SFR24            00C00-00C6F              70           1
        SFR25            00C80-00CEF              70           1
        SFR26            00D00-00D6F              70           1
        SFR27            00D80-00DEF              70           1
        SFR28            00E00-00E6F              70           1
        SFR29            00E80-00EEF              70           1
        SFR3             00180-0019F              20           1
        SFR30            00F00-00F6F              70           1
        SFR31            00F80-00FEF              70           1
        SFR4             00200-0021F              20           1
        SFR5             00280-002EF              70           1
        SFR6             00300-0036F              70           1
        SFR7             00380-003EF              70           1
        SFR8             00400-0046F              70           1
        SFR9             00480-004EF              70           1
        STRCODE          00800-00B74             375           2
        STRING           00800-00B74             100           2

                                  Symbol Table

?_ADC_GetConversion                            cstackBANK1  000CC
?_TMR1_ReadTimer                               cstackCOMMON 00070
?__Umul8_16                                    cstackCOMMON 00070
?___atdiv                                      cstackBANK1  000D5
?___flmul                                      cstackBANK0  00020
?___fltol                                      cstackBANK1  000CC
?___lwdiv                                      cstackBANK1  000CC
?___tmul                                       cstackBANK1  000CC
?___xxtofl                                     cstackBANK0  0003F
?i1___fltol                                    cstackBANK0  00035
?i1___lwdiv                                    cstackCOMMON 00070
ADC_GetConversion@channel                      cstackBANK1  000CF
EPWM1_LoadDutyValue@dutyValue                  cstackBANK1  000CC
EUSART_SetErrorHandler@interruptHandler        cstackBANK1  000CC
EUSART_SetFramingErrorHandler@interruptHandler cstackBANK1  000CC
EUSART_SetOverrunErrorHandler@interruptHandler cstackBANK1  000CC
EUSART_Write@txData                            cstackBANK1  000CC
TMR0_ReadTimer@readVal                         cstackBANK1  000CC
TMR1_ReadTimer@readVal                         cstackCOMMON 00077
TMR1_ReadTimer@readValHigh                     cstackCOMMON 00079
TMR1_ReadTimer@readValLow                      cstackCOMMON 0007A
TMR1_SetGateInterruptHandler@InterruptHandler  cstackBANK1  000CC
TMR1_WriteTimer@timerVal                       cstackCOMMON 00070
TMR6_LoadPeriodRegister@periodVal              cstackBANK1  000CC
TMR6_WriteTimer@timerVal                       cstackBANK1  000CC
_ADCON0                                        (abs)        0009D
_ADCON0bits                                    (abs)        0009D
_ADCON1                                        (abs)        0009E
_ADC_GetConversion                             text41       00CB6
_ADC_Initialize                                text38       00BC5
_ADRESH                                        (abs)        0009C
_ADRESL                                        (abs)        0009B
_ANSELA                                        (abs)        0018C
_ANSELB                                        (abs)        0018D
_APFCON0                                       (abs)        0011D
_APFCON1                                       (abs)        0011E
_BAUDCON                                       (abs)        0019F
_BORCON                                        (abs)        00116
_CCP1CON                                       (abs)        00293
_CCPR1H                                        (abs)        00292
_CCPR1L                                        (abs)        00291
_CCPTMRS0bits                                  (abs)        0029E
_CM1CON0                                       (abs)        00111
_CM1CON1                                       (abs)        00112
_CMOUTbits                                     (abs)        00115
_CMP1_Initialize                               text37       00B92
_DACCON0                                       (abs)        00118
_DACCON1                                       (abs)        00119
_DAC_Initialize                                text36       00B8D
_ECCP1AS                                       (abs)        00295
_EPWM1_Initialize                              text35       00C33
_EPWM1_LoadDutyValue                           text15       00CE9
_EUSART_DefaultErrorHandler                    (abs)        00000
_EUSART_DefaultFramingErrorHandler             (abs)        00000
_EUSART_DefaultOverrunErrorHandler             (abs)        00000
_EUSART_ErrorHandler                           nvBANK2      0012F
_EUSART_FramingErrorHandler                    nvBANK2      00133
_EUSART_Initialize                             text31       00D23
_EUSART_OverrunErrorHandler                    nvBANK2      00131
_EUSART_Read                                   text40       00C27
_EUSART_SetErrorHandler                        text34       00BCD
_EUSART_SetFramingErrorHandler                 text33       00BD5
_EUSART_SetOverrunErrorHandler                 text32       00BDD
_EUSART_Write                                  text6        00BF5
_EUSART_is_rx_ready                            text39       00B88
_FVRCON                                        (abs)        00117
_FVR_Initialize                                text30       00B7C
_INTCONbits                                    (abs)        0000B
_INTERRUPT_InterruptManager                    intentry     00004
_LATA                                          (abs)        0010C
_LATAbits                                      (abs)        0010C
_LATB                                          (abs)        0010D
_OPTION_REG                                    (abs)        00095
_OPTION_REGbits                                (abs)        00095
_OSCCON                                        (abs)        00099
_OSCILLATOR_Initialize                         text29       00BB6
_OSCTUNE                                       (abs)        00098
_PIE1bits                                      (abs)        00091
_PIN_MANAGER_IOC                               text54       00B75
_PIN_MANAGER_Initialize                        text28       00C87
_PIR1bits                                      (abs)        00011
_PIR3bits                                      (abs)        00013
_PR2                                           (abs)        0001B
_PR4                                           (abs)        00416
_PR6                                           (abs)        0041D
_PSTR1CON                                      (abs)        00296
_PWM1CON                                       (abs)        00294
_RCREG                                         (abs)        00199
_RCSTA                                         (abs)        0019D
_RCSTAbits                                     (abs)        0019D
_SPBRGH                                        (abs)        0019C
_SPBRGL                                        (abs)        0019B
_SYSTEM_Initialize                             text20       00D6D
_T1CON                                         (abs)        00018
_T1CONbits                                     (abs)        00018
_T1GCON                                        (abs)        00019
_T2CON                                         (abs)        0001C
_T4CON                                         (abs)        00417
_T4CONbits                                     (abs)        00417
_T6CON                                         (abs)        0041E
_TMR0                                          (abs)        00015
_TMR0_Initialize                               text27       00BFE
_TMR0_ReadTimer                                text19       00B98
_TMR1H                                         (abs)        00017
_TMR1L                                         (abs)        00016
_TMR1_DefaultGateInterruptHandler              text44       00002
_TMR1_GATE_ISR                                 text43       00C1C
_TMR1_GateInterruptHandler                     nvBANK0      0006E
_TMR1_Initialize                               text25       00CCF
_TMR1_ReadTimer                                text53       00C9E
_TMR1_Reload                                   text51       00BBD
_TMR1_SetGateInterruptHandler                  text26       00BE5
_TMR1_WriteTimer                               text52       00C41
_TMR2                                          (abs)        0001A
_TMR2_Initialize                               text24       00BED
_TMR4                                          (abs)        00415
_TMR4_Initialize                               text23       00C08
_TMR4_StartTimer                               text13       00B79
_TMR4_StopTimer                                text18       00B76
_TMR6                                          (abs)        0041C
_TMR6_Initialize                               text22       00C12
_TMR6_LoadPeriodRegister                       text17       00B9E
_TMR6_WriteTimer                               text16       00BA4
_TRISA                                         (abs)        0008C
_TRISB                                         (abs)        0008D
_TXREG                                         (abs)        0019A
_TXSTA                                         (abs)        0019E
_WDTCON                                        (abs)        00097
_WDT_Initialize                                text21       00B80
_WPUA                                          (abs)        0020C
_WPUB                                          (abs)        0020D
__H__absolute__                                __absolute__ 00000
__Habs1                                        abs1         00000
__Hbank0                                       bank0        00000
__Hbank1                                       bank1        00000
__Hbank10                                      bank10       00000
__Hbank11                                      bank11       00000
__Hbank12                                      bank12       00000
__Hbank13                                      bank13       00000
__Hbank14                                      bank14       00000
__Hbank15                                      bank15       00000
__Hbank16                                      bank16       00000
__Hbank17                                      bank17       00000
__Hbank18                                      bank18       00000
__Hbank19                                      bank19       00000
__Hbank2                                       bank2        00000
__Hbank20                                      bank20       00000
__Hbank21                                      bank21       00000
__Hbank22                                      bank22       00000
__Hbank23                                      bank23       00000
__Hbank24                                      bank24       00000
__Hbank25                                      bank25       00000
__Hbank26                                      bank26       00000
__Hbank27                                      bank27       00000
__Hbank28                                      bank28       00000
__Hbank29                                      bank29       00000
__Hbank3                                       bank3        00000
__Hbank30                                      bank30       00000
__Hbank31                                      bank31       00000
__Hbank4                                       bank4        00000
__Hbank5                                       bank5        00000
__Hbank6                                       bank6        00000
__Hbank7                                       bank7        00000
__Hbank8                                       bank8        00000
__Hbank9                                       bank9        00000
__Hbigram                                      bigram       00000
__HbssBANK0                                    bssBANK0     00000
__HbssBANK1                                    bssBANK1     00000
__Hcinit                                       cinit        0004B
__Hclrtext                                     clrtext      00000
__Hcode                                        code         00000
__Hcommon                                      common       00000
__Hconfig                                      config       08009
__HcstackBANK0                                 cstackBANK0  00000
__HcstackBANK1                                 cstackBANK1  00000
__HcstackCOMMON                                cstackCOMMON 00000
__HdataBANK0                                   dataBANK0    00000
__HdataBANK1                                   dataBANK1    00000
__HdataBANK2                                   dataBANK2    00000
__Heeprom_data                                 eeprom_data  00000
__Hend_init                                    end_init     0001B
__Hfunctab                                     functab      00000
__Hheap                                        heap         00000
__HidataBANK0                                  idataBANK0   00000
__HidataBANK1                                  idataBANK1   00000
__HidataBANK2                                  idataBANK2   00000
__Hinit                                        init         00019
__Hinittext                                    inittext     00000
__Hintentry                                    intentry     00019
__Hmaintext                                    maintext     00000
__HnvBANK0                                     nvBANK0      00000
__HnvBANK2                                     nvBANK2      00000
__Hpowerup                                     powerup      00000
__Hram                                         ram          00000
__Hreset_vec                                   reset_vec    00002
__Hsfr0                                        sfr0         00000
__Hsfr1                                        sfr1         00000
__Hsfr10                                       sfr10        00000
__Hsfr11                                       sfr11        00000
__Hsfr12                                       sfr12        00000
__Hsfr13                                       sfr13        00000
__Hsfr14                                       sfr14        00000
__Hsfr15                                       sfr15        00000
__Hsfr16                                       sfr16        00000
__Hsfr17                                       sfr17        00000
__Hsfr18                                       sfr18        00000
__Hsfr19                                       sfr19        00000
__Hsfr2                                        sfr2         00000
__Hsfr20                                       sfr20        00000
__Hsfr21                                       sfr21        00000
__Hsfr22                                       sfr22        00000
__Hsfr23                                       sfr23        00000
__Hsfr24                                       sfr24        00000
__Hsfr25                                       sfr25        00000
__Hsfr26                                       sfr26        00000
__Hsfr27                                       sfr27        00000
__Hsfr28                                       sfr28        00000
__Hsfr29                                       sfr29        00000
__Hsfr3                                        sfr3         00000
__Hsfr30                                       sfr30        00000
__Hsfr31                                       sfr31        00000
__Hsfr4                                        sfr4         00000
__Hsfr5                                        sfr5         00000
__Hsfr6                                        sfr6         00000
__Hsfr7                                        sfr7         00000
__Hsfr8                                        sfr8         00000
__Hsfr9                                        sfr9         00000
__Hsivt                                        sivt         00019
__Hspace_0                                     (abs)        01000
__Hspace_1                                     (abs)        00135
__Hspace_2                                     (abs)        00000
__Hspace_3                                     (abs)        00000
__Hspace_4                                     (abs)        10010
__Hstack                                       stack        00000
__Hstrings                                     strings      00000
__Hstringtext1                                 stringtext1  00000
__Htext                                        text         00000
__L__absolute__                                __absolute__ 00000
__Labs1                                        abs1         00000
__Lbank0                                       bank0        00000
__Lbank1                                       bank1        00000
__Lbank10                                      bank10       00000
__Lbank11                                      bank11       00000
__Lbank12                                      bank12       00000
__Lbank13                                      bank13       00000
__Lbank14                                      bank14       00000
__Lbank15                                      bank15       00000
__Lbank16                                      bank16       00000
__Lbank17                                      bank17       00000
__Lbank18                                      bank18       00000
__Lbank19                                      bank19       00000
__Lbank2                                       bank2        00000
__Lbank20                                      bank20       00000
__Lbank21                                      bank21       00000
__Lbank22                                      bank22       00000
__Lbank23                                      bank23       00000
__Lbank24                                      bank24       00000
__Lbank25                                      bank25       00000
__Lbank26                                      bank26       00000
__Lbank27                                      bank27       00000
__Lbank28                                      bank28       00000
__Lbank29                                      bank29       00000
__Lbank3                                       bank3        00000
__Lbank30                                      bank30       00000
__Lbank31                                      bank31       00000
__Lbank4                                       bank4        00000
__Lbank5                                       bank5        00000
__Lbank6                                       bank6        00000
__Lbank7                                       bank7        00000
__Lbank8                                       bank8        00000
__Lbank9                                       bank9        00000
__Lbigram                                      bigram       00000
__LbssBANK0                                    bssBANK0     00000
__LbssBANK1                                    bssBANK1     00000
__Lcinit                                       cinit        0001B
__Lclrtext                                     clrtext      00000
__Lcode                                        code         00000
__Lcommon                                      common       00000
__Lconfig                                      config       00000
__LcstackBANK0                                 cstackBANK0  00000
__LcstackBANK1                                 cstackBANK1  00000
__LcstackCOMMON                                cstackCOMMON 00000
__LdataBANK0                                   dataBANK0    00000
__LdataBANK1                                   dataBANK1    00000
__LdataBANK2                                   dataBANK2    00000
__Leeprom_data                                 eeprom_data  00000
__Lend_init                                    end_init     00019
__Lfunctab                                     functab      00000
__Lheap                                        heap         00000
__LidataBANK0                                  idataBANK0   00000
__LidataBANK1                                  idataBANK1   00000
__LidataBANK2                                  idataBANK2   00000
__Linit                                        init         00019
__Linittext                                    inittext     00000
__Lintentry                                    intentry     00004
__Lmaintext                                    maintext     00000
__LnvBANK0                                     nvBANK0      00000
__LnvBANK2                                     nvBANK2      00000
__Lpowerup                                     powerup      00000
__Lram                                         ram          00000
__Lreset_vec                                   reset_vec    00000
__Lsfr0                                        sfr0         00000
__Lsfr1                                        sfr1         00000
__Lsfr10                                       sfr10        00000
__Lsfr11                                       sfr11        00000
__Lsfr12                                       sfr12        00000
__Lsfr13                                       sfr13        00000
__Lsfr14                                       sfr14        00000
__Lsfr15                                       sfr15        00000
__Lsfr16                                       sfr16        00000
__Lsfr17                                       sfr17        00000
__Lsfr18                                       sfr18        00000
__Lsfr19                                       sfr19        00000
__Lsfr2                                        sfr2         00000
__Lsfr20                                       sfr20        00000
__Lsfr21                                       sfr21        00000
__Lsfr22                                       sfr22        00000
__Lsfr23                                       sfr23        00000
__Lsfr24                                       sfr24        00000
__Lsfr25                                       sfr25        00000
__Lsfr26                                       sfr26        00000
__Lsfr27                                       sfr27        00000
__Lsfr28                                       sfr28        00000
__Lsfr29                                       sfr29        00000
__Lsfr3                                        sfr3         00000
__Lsfr30                                       sfr30        00000
__Lsfr31                                       sfr31        00000
__Lsfr4                                        sfr4         00000
__Lsfr5                                        sfr5         00000
__Lsfr6                                        sfr6         00000
__Lsfr7                                        sfr7         00000
__Lsfr8                                        sfr8         00000
__Lsfr9                                        sfr9         00000
__Lsivt                                        sivt         00019
__Lspace_0                                     (abs)        00000
__Lspace_1                                     (abs)        00000
__Lspace_2                                     (abs)        00000
__Lspace_3                                     (abs)        00000
__Lspace_4                                     (abs)        00000
__Lstack                                       stack        00000
__Lstrings                                     strings      00000
__Lstringtext1                                 stringtext1  00000
__Ltext                                        text         00000
__S0                                           (abs)        01000
__S1                                           (abs)        00135
__S3                                           (abs)        00000
__Umul8_16                                     text50       00D04
__Umul8_16@multiplicand                        cstackCOMMON 00070
__Umul8_16@multiplier                          cstackCOMMON 00078
__Umul8_16@product                             cstackCOMMON 00074
__Umul8_16@word_mpld                           cstackCOMMON 00076
___atdiv                                       text10       00F22
___atdiv@counter                               cstackBANK1  000DC
___atdiv@dividend                              cstackBANK1  000D8
___atdiv@divisor                               cstackBANK1  000D5
___atdiv@quotient                              cstackBANK1  000DE
___atdiv@sign                                  cstackBANK1  000DD
___flmul                                       text49       0004B
___flmul@a                                     cstackBANK0  00024
___flmul@aexp                                  cstackBANK0  00029
___flmul@b                                     cstackBANK0  00020
___flmul@bexp                                  cstackBANK0  0002E
___flmul@grs                                   cstackBANK0  0002A
___flmul@prod                                  cstackBANK0  0002F
___flmul@sign                                  cstackBANK0  00028
___flmul@temp                                  cstackBANK0  00033
___fltol                                       text5        00EC1
___fltol@exp1                                  cstackBANK1  000D5
___fltol@f1                                    cstackBANK1  000CC
___fltol@sign1                                 cstackBANK1  000D4
___heap_hi                                     (abs)        00000
___heap_lo                                     (abs)        00000
___int_sp                                      stack        00000
___int_stack_hi                                stack        00000
___int_stack_lo                                stack        00000
___latbits                                     (abs)        00001
___lwdiv                                       text9        007CC
___lwdiv@counter                               cstackBANK1  000D3
___lwdiv@dividend                              cstackBANK1  000CE
___lwdiv@divisor                               cstackBANK1  000CC
___lwdiv@quotient                              cstackBANK1  000D1
___sp                                          stack        00000
___stack_hi                                    stack        00000
___stack_lo                                    stack        00000
___stackhi                                     (abs)        00000
___stacklo                                     (abs)        00000
___tmul                                        text12       00D47
___tmul@multiplicand                           cstackBANK1  000CF
___tmul@multiplier                             cstackBANK1  000CC
___tmul@product                                cstackBANK1  000D2
___xxtofl                                      text48       00739
___xxtofl@arg                                  cstackBANK0  00049
___xxtofl@exp                                  cstackBANK0  00048
___xxtofl@sign                                 cstackBANK0  00047
___xxtofl@val                                  cstackBANK0  0003F
__end_of_ADC_GetConversion                     text41       00CCF
__end_of_ADC_Initialize                        text38       00BCD
__end_of_CMP1_Initialize                       text37       00B98
__end_of_DAC_Initialize                        text36       00B92
__end_of_EPWM1_Initialize                      text35       00C41
__end_of_EPWM1_LoadDutyValue                   text15       00D04
__end_of_EUSART_Initialize                     text31       00D47
__end_of_EUSART_Read                           text40       00C33
__end_of_EUSART_SetErrorHandler                text34       00BD5
__end_of_EUSART_SetFramingErrorHandler         text33       00BDD
__end_of_EUSART_SetOverrunErrorHandler         text32       00BE5
__end_of_EUSART_Write                          text6        00BFE
__end_of_EUSART_is_rx_ready                    text39       00B8D
__end_of_FVR_Initialize                        text30       00B80
__end_of_INTERRUPT_InterruptManager            intentry     00019
__end_of_OSCILLATOR_Initialize                 text29       00BBD
__end_of_PIN_MANAGER_IOC                       text54       00B76
__end_of_PIN_MANAGER_Initialize                text28       00C9E
__end_of_SYSTEM_Initialize                     text20       00D97
__end_of_TMR0_Initialize                       text27       00C08
__end_of_TMR0_ReadTimer                        text19       00B9E
__end_of_TMR1_DefaultGateInterruptHandler      text44       00003
__end_of_TMR1_GATE_ISR                         text43       00C27
__end_of_TMR1_Initialize                       text25       00CE9
__end_of_TMR1_ReadTimer                        text53       00CB6
__end_of_TMR1_Reload                           text51       00BC5
__end_of_TMR1_SetGateInterruptHandler          text26       00BED
__end_of_TMR1_WriteTimer                       text52       00C50
__end_of_TMR2_Initialize                       text24       00BF5
__end_of_TMR4_Initialize                       text23       00C12
__end_of_TMR4_StartTimer                       text13       00B7C
__end_of_TMR4_StopTimer                        text18       00B79
__end_of_TMR6_Initialize                       text22       00C1C
__end_of_TMR6_LoadPeriodRegister               text17       00BA4
__end_of_TMR6_WriteTimer                       text16       00BAA
__end_of_WDT_Initialize                        text21       00B84
__end_of__Umul8_16                             text50       00D23
__end_of___atdiv                               text10       00F8C
__end_of___flmul                               text49       00247
__end_of___fltol                               text5        00F22
__end_of___lwdiv                               text9        00800
__end_of___tmul                                text12       00D6D
__end_of___xxtofl                              text48       007CC
__end_of__initialization                       cinit        00047
__end_of_analisa_Rx                            text14       005E2
__end_of_controlchoose                         text7        00C71
__end_of_daUmPasso                             text2        00C87
__end_of_definePassoMotor                      text3        00E60
__end_of_envia_Tx                              text4        01000
__end_of_fluxcontrol                           text11       0044A
__end_of_fluxpos                               text1        00E06
__end_of_lookupTable                           stringtext1  00516
__end_of_main                                  maintext     00739
__end_of_mede_height                           text45       0069C
__end_of_pwmcontrol                            text8        0037C
__end_ofi1___fltol                             text47       00EC1
__end_ofi1___lwdiv                             text46       00DCB
__initialization                               cinit        0001B
__pbssBANK0                                    bssBANK0     00053
__pbssBANK1                                    bssBANK1     000A0
__pcstackBANK0                                 cstackBANK0  00020
__pcstackBANK1                                 cstackBANK1  000CC
__pcstackCOMMON                                cstackCOMMON 00070
__pdataBANK0                                   dataBANK0    0006A
__pdataBANK1                                   dataBANK1    000EE
__pdataBANK2                                   dataBANK2    00120
__pidataBANK0                                  idataBANK0   00B84
__pidataBANK1                                  idataBANK1   00003
__pidataBANK2                                  idataBANK2   00C50
__pintentry                                    intentry     00004
__pmaintext                                    maintext     0069C
__pnvBANK0                                     nvBANK0      0006E
__pnvBANK2                                     nvBANK2      0012F
__pstringtext1                                 stringtext1  0044A
__ptext1                                       text1        00DCB
__ptext10                                      text10       00F22
__ptext11                                      text11       0037C
__ptext12                                      text12       00D47
__ptext13                                      text13       00B79
__ptext14                                      text14       00516
__ptext15                                      text15       00CE9
__ptext16                                      text16       00BA4
__ptext17                                      text17       00B9E
__ptext18                                      text18       00B76
__ptext19                                      text19       00B98
__ptext2                                       text2        00C71
__ptext20                                      text20       00D6D
__ptext21                                      text21       00B80
__ptext22                                      text22       00C12
__ptext23                                      text23       00C08
__ptext24                                      text24       00BED
__ptext25                                      text25       00CCF
__ptext26                                      text26       00BE5
__ptext27                                      text27       00BFE
__ptext28                                      text28       00C87
__ptext29                                      text29       00BB6
__ptext3                                       text3        00E06
__ptext30                                      text30       00B7C
__ptext31                                      text31       00D23
__ptext32                                      text32       00BDD
__ptext33                                      text33       00BD5
__ptext34                                      text34       00BCD
__ptext35                                      text35       00C33
__ptext36                                      text36       00B8D
__ptext37                                      text37       00B92
__ptext38                                      text38       00BC5
__ptext39                                      text39       00B88
__ptext4                                       text4        00F8C
__ptext40                                      text40       00C27
__ptext41                                      text41       00CB6
__ptext43                                      text43       00C1C
__ptext44                                      text44       00002
__ptext45                                      text45       005E2
__ptext46                                      text46       00D97
__ptext47                                      text47       00E60
__ptext48                                      text48       00739
__ptext49                                      text49       0004B
__ptext5                                       text5        00EC1
__ptext50                                      text50       00D04
__ptext51                                      text51       00BBD
__ptext52                                      text52       00C41
__ptext53                                      text53       00C9E
__ptext54                                      text54       00B75
__ptext6                                       text6        00BF5
__ptext7                                       text7        00C5F
__ptext8                                       text8        00247
__ptext9                                       text9        007CC
_adc_temp                                      bssBANK1     000B5
_analisa_Rx                                    text14       00516
_avg_tempo_voo                                 bssBANK1     000A0
_balldist                                      bssBANK1     000AA
_ballset                                       bssBANK0     0005E
_bufferRx                                      bssBANK0     00053
_controlchoice                                 bssBANK1     000CA
_controlchoose                                 text7        00C5F
_countRx                                       bssBANK1     000C9
_count_Tx                                      bssBANK1     000C8
_daUmPasso                                     text2        00C71
_dc                                            bssBANK1     000BB
_definePassoMotor                              text3        00E06
_envia_Tx                                      text4        00F8C
_error                                         bssBANK1     000B0
_errorp                                        bssBANK1     000AD
_eusartRxLastError                             bssBANK1     000CB
_first_read                                    dataBANK0    0006D
_fluxcontrol                                   text11       0037C
_fluxpos                                       text1        00DCB
_height                                        bssBANK1     000B3
_lookupTable                                   stringtext1  0044A
_main                                          maintext     0069C
_mede_height                                   text45       005E2
_nao_salva                                     bssBANK1     000C7
_outpre                                        bssBANK1     000A4
_output                                        bssBANK1     000C1
_outputsum                                     bssBANK1     000A7
_passo                                         bssBANK1     000C6
_passo_ctrl                                    bssBANK1     000C5
_position                                      bssBANK1     000B9
_pwmcontrol                                    text8        00247
_sp_height                                     bssBANK0     00063
_sp_position                                   bssBANK1     000B7
_tempo_voo                                     bssBANK0     00061
_timer0ReloadVal                               bssBANK0     00069
_timer1ReloadVal                               bssBANK1     000C3
_vRx                                           bssBANK1     000BD
_vTx                                           bssBANK1     000BF
btemp                                          (abs)        0007E
clear_ram0                                     clrtext      00BAA
daUmPasso@sentido                              cstackBANK1  000CF
definePassoMotor@passom                        cstackBANK1  000CE
definePassoMotor@sentido                       cstackBANK1  000CC
end_of_initialization                          cinit        00047
i1___fltol                                     text47       00E60
i1___fltol@exp1                                cstackBANK0  0003E
i1___fltol@f1                                  cstackBANK0  00035
i1___fltol@sign1                               cstackBANK0  0003D
i1___lwdiv                                     text46       00D97
i1___lwdiv@counter                             cstackCOMMON 00077
i1___lwdiv@dividend                            cstackCOMMON 00072
i1___lwdiv@divisor                             cstackCOMMON 00070
i1___lwdiv@quotient                            cstackCOMMON 00075
init_ram                                       inittext     00BB0
int$flags                                      (abs)        0007E
intlevel0                                      functab      00000
intlevel1                                      functab      00000
intlevel2                                      functab      00000
intlevel3                                      functab      00000
intlevel4                                      functab      00000
intlevel5                                      functab      00000
reset_vec                                      reset_vec    00000
start                                          init         00019
start_initialization                           cinit        0001B
wtemp0                                         (abs)        0007E


MODULE INFORMATION

Module		Function		Class		Link	Load	Size
C:\Program Files\Microchip\xc8\v2.46\pic\sources\c99\common\fltol.c
		___fltol       		CODE           	0EC1	0000	97

C:\Program Files\Microchip\xc8\v2.46\pic\sources\c99\common\fltol.c estimated size: 97

C:\Program Files\Microchip\xc8\v2.46\pic\sources\c99\common\Umul8_16.c
		__Umul8_16     		CODE           	0D04	0000	31

C:\Program Files\Microchip\xc8\v2.46\pic\sources\c99\common\Umul8_16.c estimated size: 31

mcc_generated_files/cmp1.c
		_CMP1_Initialize		CODE           	0B92	0000	6

mcc_generated_files/cmp1.c estimated size: 6

mcc_generated_files/tmr6.c
		_TMR6_WriteTimer		CODE           	0BA4	0000	6
		_TMR6_LoadPeriodRegister		CODE           	0B9E	0000	6
		_TMR6_Initialize		CODE           	0C12	0000	10

mcc_generated_files/tmr6.c estimated size: 22

mcc_generated_files/fvr.c
		_FVR_Initialize		CODE           	0B7C	0000	4

mcc_generated_files/fvr.c estimated size: 4

mcc_generated_files/tmr4.c
		_TMR4_Initialize		CODE           	0C08	0000	10
		_TMR4_StopTimer		CODE           	0B76	0000	3
		_TMR4_StartTimer		CODE           	0B79	0000	3

mcc_generated_files/tmr4.c estimated size: 16

C:\Program Files\Microchip\xc8\v2.46\pic\sources\c99\common\lwdiv.c
		___lwdiv       		CODE           	07CC	0000	52

C:\Program Files\Microchip\xc8\v2.46\pic\sources\c99\common\lwdiv.c estimated size: 52

mcc_generated_files/tmr2.c
		_TMR2_Initialize		CODE           	0BED	0000	8

mcc_generated_files/tmr2.c estimated size: 8

mcc_generated_files/interrupt_manager.c
		_INTERRUPT_InterruptManager		CODE           	0004	0000	21

mcc_generated_files/interrupt_manager.c estimated size: 21

C:\Program Files\Microchip\xc8\v2.46\pic\sources\c99\common\xxtofl.c
		___xxtofl      		CODE           	0739	0000	147

C:\Program Files\Microchip\xc8\v2.46\pic\sources\c99\common\xxtofl.c estimated size: 147

mcc_generated_files/tmr0.c
		_TMR0_ReadTimer		CODE           	0B98	0000	6
		_TMR0_Initialize		CODE           	0BFE	0000	10

mcc_generated_files/tmr0.c estimated size: 16

C:\Program Files\Microchip\xc8\v2.46\pic\sources\c99\common\Umul24.c
		___tmul        		CODE           	0D47	0000	38

C:\Program Files\Microchip\xc8\v2.46\pic\sources\c99\common\Umul24.c estimated size: 38

mcc_generated_files/pin_manager.c
		_PIN_MANAGER_Initialize		CODE           	0C87	0000	23
		_PIN_MANAGER_IOC		CODE           	0B75	0000	1

mcc_generated_files/pin_manager.c estimated size: 24

C:\Program Files\Microchip\xc8\v2.46\pic\sources\c99\common\sprcmul.c
		___flmul       		CODE           	004B	0000	508

C:\Program Files\Microchip\xc8\v2.46\pic\sources\c99\common\sprcmul.c estimated size: 508

C:\Program Files\Microchip\xc8\v2.46\pic\sources\c99\common\atdiv.c
		___atdiv       		CODE           	0F22	0000	106

C:\Program Files\Microchip\xc8\v2.46\pic\sources\c99\common\atdiv.c estimated size: 106

mcc_generated_files/adc.c
		_ADC_Initialize		CODE           	0BC5	0000	8
		_ADC_GetConversion		CODE           	0CB6	0000	25

mcc_generated_files/adc.c estimated size: 33

shared
		_lookupTable   		STRCODE        	044A	0000	204
		i1___lwdiv     		CODE           	0D97	0000	52
		i1___fltol     		CODE           	0E60	0000	97
		__initialization		CODE           	001B	0000	44

shared estimated size: 397

mcc_generated_files/mcc.c
		_WDT_Initialize		CODE           	0B80	0000	4
		_OSCILLATOR_Initialize		CODE           	0BB6	0000	7
		_SYSTEM_Initialize		CODE           	0D6D	0000	42

mcc_generated_files/mcc.c estimated size: 53

mcc_generated_files/tmr1.c
		_TMR1_Initialize		CODE           	0CCF	0000	26
		_TMR1_Reload   		CODE           	0BBD	0000	8
		_TMR1_WriteTimer		CODE           	0C41	0000	15
		_TMR1_ReadTimer		CODE           	0C9E	0000	24
		_TMR1_SetGateInterruptHandler		CODE           	0BE5	0000	8
		_TMR1_GATE_ISR 		CODE           	0C1C	0000	11
		_TMR1_DefaultGateInterruptHandler		CODE           	0002	0000	1

mcc_generated_files/tmr1.c estimated size: 93

mcc_generated_files/epwm1.c
		_EPWM1_LoadDutyValue		CODE           	0CE9	0000	27
		_EPWM1_Initialize		CODE           	0C33	0000	14

mcc_generated_files/epwm1.c estimated size: 41

mcc_generated_files/eusart.c
		_EUSART_Read   		CODE           	0C27	0000	12
		_EUSART_Write  		CODE           	0BF5	0000	9
		_EUSART_Initialize		CODE           	0D23	0000	36
		_EUSART_SetFramingErrorHandler		CODE           	0BD5	0000	8
		_EUSART_SetErrorHandler		CODE           	0BCD	0000	8
		_EUSART_SetOverrunErrorHandler		CODE           	0BDD	0000	8
		_EUSART_is_rx_ready		CODE           	0B88	0000	5

mcc_generated_files/eusart.c estimated size: 86

mcc_generated_files/dac.c
		_DAC_Initialize		CODE           	0B8D	0000	5

mcc_generated_files/dac.c estimated size: 5

main.c
		_mede_height   		CODE           	05E2	0000	186
		_main          		CODE           	069C	0000	157
		_analisa_Rx    		CODE           	0516	0000	204
		_fluxpos       		CODE           	0DCB	0000	59
		_controlchoose 		CODE           	0C5F	0000	18
		_daUmPasso     		CODE           	0C71	0000	22
		_definePassoMotor		CODE           	0E06	0000	90
		_fluxcontrol   		CODE           	037C	0000	206
		_envia_Tx      		CODE           	0F8C	0000	116
		_pwmcontrol    		CODE           	0247	0000	309

main.c estimated size: 1367

